   1              		.syntax unified
   2              		.cpu cortex-m3
   3              		.fpu softvfp
   4              		.eabi_attribute 20, 1
   5              		.eabi_attribute 21, 1
   6              		.eabi_attribute 23, 3
   7              		.eabi_attribute 24, 1
   8              		.eabi_attribute 25, 1
   9              		.eabi_attribute 26, 1
  10              		.eabi_attribute 30, 1
  11              		.eabi_attribute 34, 1
  12              		.eabi_attribute 18, 4
  13              		.thumb
  14              		.file	"stm32f10x_flash.c"
  15              		.text
  16              	.Ltext0:
  17              		.cfi_sections	.debug_frame
  18              		.section	.text.FLASH_SetLatency,"ax",%progbits
  19              		.align	2
  20              		.global	FLASH_SetLatency
  21              		.thumb
  22              		.thumb_func
  24              	FLASH_SetLatency:
  25              	.LFB29:
  26              		.file 1 ".\\StdPeriphLib\\src/stm32f10x_flash.c"
   1:.\StdPeriphLib\src/stm32f10x_flash.c **** /**
   2:.\StdPeriphLib\src/stm32f10x_flash.c ****   ******************************************************************************
   3:.\StdPeriphLib\src/stm32f10x_flash.c ****   * @file    stm32f10x_flash.c
   4:.\StdPeriphLib\src/stm32f10x_flash.c ****   * @author  MCD Application Team
   5:.\StdPeriphLib\src/stm32f10x_flash.c ****   * @version V3.5.0
   6:.\StdPeriphLib\src/stm32f10x_flash.c ****   * @date    11-March-2011
   7:.\StdPeriphLib\src/stm32f10x_flash.c ****   * @brief   This file provides all the FLASH firmware functions.
   8:.\StdPeriphLib\src/stm32f10x_flash.c ****   ******************************************************************************
   9:.\StdPeriphLib\src/stm32f10x_flash.c ****   * @attention
  10:.\StdPeriphLib\src/stm32f10x_flash.c ****   *
  11:.\StdPeriphLib\src/stm32f10x_flash.c ****   * THE PRESENT FIRMWARE WHICH IS FOR GUIDANCE ONLY AIMS AT PROVIDING CUSTOMERS
  12:.\StdPeriphLib\src/stm32f10x_flash.c ****   * WITH CODING INFORMATION REGARDING THEIR PRODUCTS IN ORDER FOR THEM TO SAVE
  13:.\StdPeriphLib\src/stm32f10x_flash.c ****   * TIME. AS A RESULT, STMICROELECTRONICS SHALL NOT BE HELD LIABLE FOR ANY
  14:.\StdPeriphLib\src/stm32f10x_flash.c ****   * DIRECT, INDIRECT OR CONSEQUENTIAL DAMAGES WITH RESPECT TO ANY CLAIMS ARISING
  15:.\StdPeriphLib\src/stm32f10x_flash.c ****   * FROM THE CONTENT OF SUCH FIRMWARE AND/OR THE USE MADE BY CUSTOMERS OF THE
  16:.\StdPeriphLib\src/stm32f10x_flash.c ****   * CODING INFORMATION CONTAINED HEREIN IN CONNECTION WITH THEIR PRODUCTS.
  17:.\StdPeriphLib\src/stm32f10x_flash.c ****   *
  18:.\StdPeriphLib\src/stm32f10x_flash.c ****   * <h2><center>&copy; COPYRIGHT 2011 STMicroelectronics</center></h2>
  19:.\StdPeriphLib\src/stm32f10x_flash.c ****   ******************************************************************************
  20:.\StdPeriphLib\src/stm32f10x_flash.c ****   */
  21:.\StdPeriphLib\src/stm32f10x_flash.c **** 
  22:.\StdPeriphLib\src/stm32f10x_flash.c **** /* Includes ------------------------------------------------------------------*/
  23:.\StdPeriphLib\src/stm32f10x_flash.c **** #include "stm32f10x_flash.h"
  24:.\StdPeriphLib\src/stm32f10x_flash.c **** 
  25:.\StdPeriphLib\src/stm32f10x_flash.c **** /** @addtogroup STM32F10x_StdPeriph_Driver
  26:.\StdPeriphLib\src/stm32f10x_flash.c ****   * @{
  27:.\StdPeriphLib\src/stm32f10x_flash.c ****   */
  28:.\StdPeriphLib\src/stm32f10x_flash.c **** 
  29:.\StdPeriphLib\src/stm32f10x_flash.c **** /** @defgroup FLASH 
  30:.\StdPeriphLib\src/stm32f10x_flash.c ****   * @brief FLASH driver modules
  31:.\StdPeriphLib\src/stm32f10x_flash.c ****   * @{
  32:.\StdPeriphLib\src/stm32f10x_flash.c ****   */ 
  33:.\StdPeriphLib\src/stm32f10x_flash.c **** 
  34:.\StdPeriphLib\src/stm32f10x_flash.c **** /** @defgroup FLASH_Private_TypesDefinitions
  35:.\StdPeriphLib\src/stm32f10x_flash.c ****   * @{
  36:.\StdPeriphLib\src/stm32f10x_flash.c ****   */
  37:.\StdPeriphLib\src/stm32f10x_flash.c **** 
  38:.\StdPeriphLib\src/stm32f10x_flash.c **** /**
  39:.\StdPeriphLib\src/stm32f10x_flash.c ****   * @}
  40:.\StdPeriphLib\src/stm32f10x_flash.c ****   */ 
  41:.\StdPeriphLib\src/stm32f10x_flash.c **** 
  42:.\StdPeriphLib\src/stm32f10x_flash.c **** /** @defgroup FLASH_Private_Defines
  43:.\StdPeriphLib\src/stm32f10x_flash.c ****   * @{
  44:.\StdPeriphLib\src/stm32f10x_flash.c ****   */ 
  45:.\StdPeriphLib\src/stm32f10x_flash.c **** 
  46:.\StdPeriphLib\src/stm32f10x_flash.c **** /* Flash Access Control Register bits */
  47:.\StdPeriphLib\src/stm32f10x_flash.c **** #define ACR_LATENCY_Mask         ((uint32_t)0x00000038)
  48:.\StdPeriphLib\src/stm32f10x_flash.c **** #define ACR_HLFCYA_Mask          ((uint32_t)0xFFFFFFF7)
  49:.\StdPeriphLib\src/stm32f10x_flash.c **** #define ACR_PRFTBE_Mask          ((uint32_t)0xFFFFFFEF)
  50:.\StdPeriphLib\src/stm32f10x_flash.c **** 
  51:.\StdPeriphLib\src/stm32f10x_flash.c **** /* Flash Access Control Register bits */
  52:.\StdPeriphLib\src/stm32f10x_flash.c **** #define ACR_PRFTBS_Mask          ((uint32_t)0x00000020) 
  53:.\StdPeriphLib\src/stm32f10x_flash.c **** 
  54:.\StdPeriphLib\src/stm32f10x_flash.c **** /* Flash Control Register bits */
  55:.\StdPeriphLib\src/stm32f10x_flash.c **** #define CR_PG_Set                ((uint32_t)0x00000001)
  56:.\StdPeriphLib\src/stm32f10x_flash.c **** #define CR_PG_Reset              ((uint32_t)0x00001FFE) 
  57:.\StdPeriphLib\src/stm32f10x_flash.c **** #define CR_PER_Set               ((uint32_t)0x00000002)
  58:.\StdPeriphLib\src/stm32f10x_flash.c **** #define CR_PER_Reset             ((uint32_t)0x00001FFD)
  59:.\StdPeriphLib\src/stm32f10x_flash.c **** #define CR_MER_Set               ((uint32_t)0x00000004)
  60:.\StdPeriphLib\src/stm32f10x_flash.c **** #define CR_MER_Reset             ((uint32_t)0x00001FFB)
  61:.\StdPeriphLib\src/stm32f10x_flash.c **** #define CR_OPTPG_Set             ((uint32_t)0x00000010)
  62:.\StdPeriphLib\src/stm32f10x_flash.c **** #define CR_OPTPG_Reset           ((uint32_t)0x00001FEF)
  63:.\StdPeriphLib\src/stm32f10x_flash.c **** #define CR_OPTER_Set             ((uint32_t)0x00000020)
  64:.\StdPeriphLib\src/stm32f10x_flash.c **** #define CR_OPTER_Reset           ((uint32_t)0x00001FDF)
  65:.\StdPeriphLib\src/stm32f10x_flash.c **** #define CR_STRT_Set              ((uint32_t)0x00000040)
  66:.\StdPeriphLib\src/stm32f10x_flash.c **** #define CR_LOCK_Set              ((uint32_t)0x00000080)
  67:.\StdPeriphLib\src/stm32f10x_flash.c **** 
  68:.\StdPeriphLib\src/stm32f10x_flash.c **** /* FLASH Mask */
  69:.\StdPeriphLib\src/stm32f10x_flash.c **** #define RDPRT_Mask               ((uint32_t)0x00000002)
  70:.\StdPeriphLib\src/stm32f10x_flash.c **** #define WRP0_Mask                ((uint32_t)0x000000FF)
  71:.\StdPeriphLib\src/stm32f10x_flash.c **** #define WRP1_Mask                ((uint32_t)0x0000FF00)
  72:.\StdPeriphLib\src/stm32f10x_flash.c **** #define WRP2_Mask                ((uint32_t)0x00FF0000)
  73:.\StdPeriphLib\src/stm32f10x_flash.c **** #define WRP3_Mask                ((uint32_t)0xFF000000)
  74:.\StdPeriphLib\src/stm32f10x_flash.c **** #define OB_USER_BFB2             ((uint16_t)0x0008)
  75:.\StdPeriphLib\src/stm32f10x_flash.c **** 
  76:.\StdPeriphLib\src/stm32f10x_flash.c **** /* FLASH Keys */
  77:.\StdPeriphLib\src/stm32f10x_flash.c **** #define RDP_Key                  ((uint16_t)0x00A5)
  78:.\StdPeriphLib\src/stm32f10x_flash.c **** #define FLASH_KEY1               ((uint32_t)0x45670123)
  79:.\StdPeriphLib\src/stm32f10x_flash.c **** #define FLASH_KEY2               ((uint32_t)0xCDEF89AB)
  80:.\StdPeriphLib\src/stm32f10x_flash.c **** 
  81:.\StdPeriphLib\src/stm32f10x_flash.c **** /* FLASH BANK address */
  82:.\StdPeriphLib\src/stm32f10x_flash.c **** #define FLASH_BANK1_END_ADDRESS   ((uint32_t)0x807FFFF)
  83:.\StdPeriphLib\src/stm32f10x_flash.c **** 
  84:.\StdPeriphLib\src/stm32f10x_flash.c **** /* Delay definition */   
  85:.\StdPeriphLib\src/stm32f10x_flash.c **** #define EraseTimeout          ((uint32_t)0x000B0000)
  86:.\StdPeriphLib\src/stm32f10x_flash.c **** #define ProgramTimeout        ((uint32_t)0x00002000)
  87:.\StdPeriphLib\src/stm32f10x_flash.c **** /**
  88:.\StdPeriphLib\src/stm32f10x_flash.c ****   * @}
  89:.\StdPeriphLib\src/stm32f10x_flash.c ****   */ 
  90:.\StdPeriphLib\src/stm32f10x_flash.c **** 
  91:.\StdPeriphLib\src/stm32f10x_flash.c **** /** @defgroup FLASH_Private_Macros
  92:.\StdPeriphLib\src/stm32f10x_flash.c ****   * @{
  93:.\StdPeriphLib\src/stm32f10x_flash.c ****   */
  94:.\StdPeriphLib\src/stm32f10x_flash.c **** 
  95:.\StdPeriphLib\src/stm32f10x_flash.c **** /**
  96:.\StdPeriphLib\src/stm32f10x_flash.c ****   * @}
  97:.\StdPeriphLib\src/stm32f10x_flash.c ****   */ 
  98:.\StdPeriphLib\src/stm32f10x_flash.c **** 
  99:.\StdPeriphLib\src/stm32f10x_flash.c **** /** @defgroup FLASH_Private_Variables
 100:.\StdPeriphLib\src/stm32f10x_flash.c ****   * @{
 101:.\StdPeriphLib\src/stm32f10x_flash.c ****   */
 102:.\StdPeriphLib\src/stm32f10x_flash.c **** 
 103:.\StdPeriphLib\src/stm32f10x_flash.c **** /**
 104:.\StdPeriphLib\src/stm32f10x_flash.c ****   * @}
 105:.\StdPeriphLib\src/stm32f10x_flash.c ****   */ 
 106:.\StdPeriphLib\src/stm32f10x_flash.c **** 
 107:.\StdPeriphLib\src/stm32f10x_flash.c **** /** @defgroup FLASH_Private_FunctionPrototypes
 108:.\StdPeriphLib\src/stm32f10x_flash.c ****   * @{
 109:.\StdPeriphLib\src/stm32f10x_flash.c ****   */
 110:.\StdPeriphLib\src/stm32f10x_flash.c ****   
 111:.\StdPeriphLib\src/stm32f10x_flash.c **** /**
 112:.\StdPeriphLib\src/stm32f10x_flash.c ****   * @}
 113:.\StdPeriphLib\src/stm32f10x_flash.c ****   */
 114:.\StdPeriphLib\src/stm32f10x_flash.c **** 
 115:.\StdPeriphLib\src/stm32f10x_flash.c **** /** @defgroup FLASH_Private_Functions
 116:.\StdPeriphLib\src/stm32f10x_flash.c ****   * @{
 117:.\StdPeriphLib\src/stm32f10x_flash.c ****   */
 118:.\StdPeriphLib\src/stm32f10x_flash.c **** 
 119:.\StdPeriphLib\src/stm32f10x_flash.c **** /**
 120:.\StdPeriphLib\src/stm32f10x_flash.c **** @code  
 121:.\StdPeriphLib\src/stm32f10x_flash.c ****  
 122:.\StdPeriphLib\src/stm32f10x_flash.c ****  This driver provides functions to configure and program the Flash memory of all STM32F10x devices,
 123:.\StdPeriphLib\src/stm32f10x_flash.c ****  including the latest STM32F10x_XL density devices. 
 124:.\StdPeriphLib\src/stm32f10x_flash.c **** 
 125:.\StdPeriphLib\src/stm32f10x_flash.c ****  STM32F10x_XL devices feature up to 1 Mbyte with dual bank architecture for read-while-write (RWW) 
 126:.\StdPeriphLib\src/stm32f10x_flash.c ****     - bank1: fixed size of 512 Kbytes (256 pages of 2Kbytes each)
 127:.\StdPeriphLib\src/stm32f10x_flash.c ****     - bank2: up to 512 Kbytes (up to 256 pages of 2Kbytes each)
 128:.\StdPeriphLib\src/stm32f10x_flash.c ****  While other STM32F10x devices features only one bank with memory up to 512 Kbytes.
 129:.\StdPeriphLib\src/stm32f10x_flash.c **** 
 130:.\StdPeriphLib\src/stm32f10x_flash.c ****  In version V3.3.0, some functions were updated and new ones were added to support
 131:.\StdPeriphLib\src/stm32f10x_flash.c ****  STM32F10x_XL devices. Thus some functions manages all devices, while other are 
 132:.\StdPeriphLib\src/stm32f10x_flash.c ****  dedicated for XL devices only.
 133:.\StdPeriphLib\src/stm32f10x_flash.c ****  
 134:.\StdPeriphLib\src/stm32f10x_flash.c ****  The table below presents the list of available functions depending on the used STM32F10x devices. 
 135:.\StdPeriphLib\src/stm32f10x_flash.c ****       
 136:.\StdPeriphLib\src/stm32f10x_flash.c ****    ***************************************************
 137:.\StdPeriphLib\src/stm32f10x_flash.c ****    * Legacy functions used for all STM32F10x devices *
 138:.\StdPeriphLib\src/stm32f10x_flash.c ****    ***************************************************
 139:.\StdPeriphLib\src/stm32f10x_flash.c ****    +-----------------------------------------------------------------------------------------------
 140:.\StdPeriphLib\src/stm32f10x_flash.c ****    |       Functions prototypes         |STM32F10x_XL|Other STM32F10x|    Comments                 
 141:.\StdPeriphLib\src/stm32f10x_flash.c ****    |                                    |   devices  |  devices      |                             
 142:.\StdPeriphLib\src/stm32f10x_flash.c ****    |-----------------------------------------------------------------------------------------------
 143:.\StdPeriphLib\src/stm32f10x_flash.c ****    |FLASH_SetLatency                    |    Yes     |      Yes      | No change                   
 144:.\StdPeriphLib\src/stm32f10x_flash.c ****    |-----------------------------------------------------------------------------------------------
 145:.\StdPeriphLib\src/stm32f10x_flash.c ****    |FLASH_HalfCycleAccessCmd            |    Yes     |      Yes      | No change                   
 146:.\StdPeriphLib\src/stm32f10x_flash.c ****    |-----------------------------------------------------------------------------------------------
 147:.\StdPeriphLib\src/stm32f10x_flash.c ****    |FLASH_PrefetchBufferCmd             |    Yes     |      Yes      | No change                   
 148:.\StdPeriphLib\src/stm32f10x_flash.c ****    |-----------------------------------------------------------------------------------------------
 149:.\StdPeriphLib\src/stm32f10x_flash.c ****    |FLASH_Unlock                        |    Yes     |      Yes      | - For STM32F10X_XL devices: 
 150:.\StdPeriphLib\src/stm32f10x_flash.c ****    |                                    |            |               | - For other devices: unlock 
 151:.\StdPeriphLib\src/stm32f10x_flash.c ****    |                                    |            |               |   to FLASH_UnlockBank1 funct
 152:.\StdPeriphLib\src/stm32f10x_flash.c ****    |-----------------------------------------------------------------------------------------------
 153:.\StdPeriphLib\src/stm32f10x_flash.c ****    |FLASH_Lock                          |    Yes     |      Yes      | - For STM32F10X_XL devices: 
 154:.\StdPeriphLib\src/stm32f10x_flash.c ****    |                                    |            |               | - For other devices: lock Ba
 155:.\StdPeriphLib\src/stm32f10x_flash.c ****    |                                    |            |               |   to FLASH_LockBank1 functio
 156:.\StdPeriphLib\src/stm32f10x_flash.c ****    |-----------------------------------------------------------------------------------------------
 157:.\StdPeriphLib\src/stm32f10x_flash.c ****    |FLASH_ErasePage                     |    Yes     |      Yes      | - For STM32F10x_XL devices: 
 158:.\StdPeriphLib\src/stm32f10x_flash.c ****    |                                    |            |               | - For other devices: erase a
 159:.\StdPeriphLib\src/stm32f10x_flash.c ****    |-----------------------------------------------------------------------------------------------
 160:.\StdPeriphLib\src/stm32f10x_flash.c ****    |FLASH_EraseAllPages                 |    Yes     |      Yes      | - For STM32F10x_XL devices: 
 161:.\StdPeriphLib\src/stm32f10x_flash.c ****    |                                    |            |               | - For other devices: erase a
 162:.\StdPeriphLib\src/stm32f10x_flash.c ****    |-----------------------------------------------------------------------------------------------
 163:.\StdPeriphLib\src/stm32f10x_flash.c ****    |FLASH_EraseOptionBytes              |    Yes     |      Yes      | No change                   
 164:.\StdPeriphLib\src/stm32f10x_flash.c ****    |-----------------------------------------------------------------------------------------------
 165:.\StdPeriphLib\src/stm32f10x_flash.c ****    |FLASH_ProgramWord                   |    Yes     |      Yes      | Updated to program up to 1MB
 166:.\StdPeriphLib\src/stm32f10x_flash.c ****    |-----------------------------------------------------------------------------------------------
 167:.\StdPeriphLib\src/stm32f10x_flash.c ****    |FLASH_ProgramHalfWord               |    Yes     |      Yes      | Updated to program up to 1MB
 168:.\StdPeriphLib\src/stm32f10x_flash.c ****    |-----------------------------------------------------------------------------------------------
 169:.\StdPeriphLib\src/stm32f10x_flash.c ****    |FLASH_ProgramOptionByteData         |    Yes     |      Yes      | No change                   
 170:.\StdPeriphLib\src/stm32f10x_flash.c ****    |-----------------------------------------------------------------------------------------------
 171:.\StdPeriphLib\src/stm32f10x_flash.c ****    |FLASH_EnableWriteProtection         |    Yes     |      Yes      | No change                   
 172:.\StdPeriphLib\src/stm32f10x_flash.c ****    |-----------------------------------------------------------------------------------------------
 173:.\StdPeriphLib\src/stm32f10x_flash.c ****    |FLASH_ReadOutProtection             |    Yes     |      Yes      | No change                   
 174:.\StdPeriphLib\src/stm32f10x_flash.c ****    |-----------------------------------------------------------------------------------------------
 175:.\StdPeriphLib\src/stm32f10x_flash.c ****    |FLASH_UserOptionByteConfig          |    Yes     |      Yes      | No change                   
 176:.\StdPeriphLib\src/stm32f10x_flash.c ****    |-----------------------------------------------------------------------------------------------
 177:.\StdPeriphLib\src/stm32f10x_flash.c ****    |FLASH_GetUserOptionByte             |    Yes     |      Yes      | No change                   
 178:.\StdPeriphLib\src/stm32f10x_flash.c ****    |-----------------------------------------------------------------------------------------------
 179:.\StdPeriphLib\src/stm32f10x_flash.c ****    |FLASH_GetWriteProtectionOptionByte  |    Yes     |      Yes      | No change                   
 180:.\StdPeriphLib\src/stm32f10x_flash.c ****    |-----------------------------------------------------------------------------------------------
 181:.\StdPeriphLib\src/stm32f10x_flash.c ****    |FLASH_GetReadOutProtectionStatus    |    Yes     |      Yes      | No change                   
 182:.\StdPeriphLib\src/stm32f10x_flash.c ****    |-----------------------------------------------------------------------------------------------
 183:.\StdPeriphLib\src/stm32f10x_flash.c ****    |FLASH_GetPrefetchBufferStatus       |    Yes     |      Yes      | No change                   
 184:.\StdPeriphLib\src/stm32f10x_flash.c ****    |-----------------------------------------------------------------------------------------------
 185:.\StdPeriphLib\src/stm32f10x_flash.c ****    |FLASH_ITConfig                      |    Yes     |      Yes      | - For STM32F10x_XL devices: 
 186:.\StdPeriphLib\src/stm32f10x_flash.c ****    |                                    |            |               | - For other devices: enable 
 187:.\StdPeriphLib\src/stm32f10x_flash.c ****    |-----------------------------------------------------------------------------------------------
 188:.\StdPeriphLib\src/stm32f10x_flash.c ****    |FLASH_GetFlagStatus                 |    Yes     |      Yes      | - For STM32F10x_XL devices: 
 189:.\StdPeriphLib\src/stm32f10x_flash.c ****    |                                    |            |               | - For other devices: return 
 190:.\StdPeriphLib\src/stm32f10x_flash.c ****    |-----------------------------------------------------------------------------------------------
 191:.\StdPeriphLib\src/stm32f10x_flash.c ****    |FLASH_ClearFlag                     |    Yes     |      Yes      | - For STM32F10x_XL devices: 
 192:.\StdPeriphLib\src/stm32f10x_flash.c ****    |                                    |            |               | - For other devices: clear B
 193:.\StdPeriphLib\src/stm32f10x_flash.c ****    |-----------------------------------------------------------------------------------------------
 194:.\StdPeriphLib\src/stm32f10x_flash.c ****    |FLASH_GetStatus                     |    Yes     |      Yes      | - Return the status of Bank1
 195:.\StdPeriphLib\src/stm32f10x_flash.c ****    |                                    |            |               |   equivalent to FLASH_GetBan
 196:.\StdPeriphLib\src/stm32f10x_flash.c ****    |-----------------------------------------------------------------------------------------------
 197:.\StdPeriphLib\src/stm32f10x_flash.c ****    |FLASH_WaitForLastOperation          |    Yes     |      Yes      | - Wait for Bank1 last operat
 198:.\StdPeriphLib\src/stm32f10x_flash.c ****    |                                    |            |               |   equivalent to: FLASH_WaitF
 199:.\StdPeriphLib\src/stm32f10x_flash.c ****    +-----------------------------------------------------------------------------------------------
 200:.\StdPeriphLib\src/stm32f10x_flash.c **** 
 201:.\StdPeriphLib\src/stm32f10x_flash.c ****    ************************************************************************************************
 202:.\StdPeriphLib\src/stm32f10x_flash.c ****    * New functions used for all STM32F10x devices to manage Bank1:                                 
 203:.\StdPeriphLib\src/stm32f10x_flash.c ****    *   - These functions are mainly useful for STM32F10x_XL density devices, to have separate contr
 204:.\StdPeriphLib\src/stm32f10x_flash.c ****    *   - For other devices, these functions are optional (covered by functions listed above)       
 205:.\StdPeriphLib\src/stm32f10x_flash.c ****    ************************************************************************************************
 206:.\StdPeriphLib\src/stm32f10x_flash.c ****    +-----------------------------------------------------------------------------------------------
 207:.\StdPeriphLib\src/stm32f10x_flash.c ****    |       Functions prototypes         |STM32F10x_XL|Other STM32F10x|    Comments                 
 208:.\StdPeriphLib\src/stm32f10x_flash.c ****    |                                    |   devices  |  devices      |                             
 209:.\StdPeriphLib\src/stm32f10x_flash.c ****    |-----------------------------------------------------------------------------------------------
 210:.\StdPeriphLib\src/stm32f10x_flash.c ****    | FLASH_UnlockBank1                  |    Yes     |      Yes      | - Unlock Bank1              
 211:.\StdPeriphLib\src/stm32f10x_flash.c ****    |-----------------------------------------------------------------------------------------------
 212:.\StdPeriphLib\src/stm32f10x_flash.c ****    |FLASH_LockBank1                     |    Yes     |      Yes      | - Lock Bank1                
 213:.\StdPeriphLib\src/stm32f10x_flash.c ****    |-----------------------------------------------------------------------------------------------
 214:.\StdPeriphLib\src/stm32f10x_flash.c ****    | FLASH_EraseAllBank1Pages           |    Yes     |      Yes      | - Erase all pages in Bank1  
 215:.\StdPeriphLib\src/stm32f10x_flash.c ****    |-----------------------------------------------------------------------------------------------
 216:.\StdPeriphLib\src/stm32f10x_flash.c ****    | FLASH_GetBank1Status               |    Yes     |      Yes      | - Return the status of Bank1
 217:.\StdPeriphLib\src/stm32f10x_flash.c ****    |-----------------------------------------------------------------------------------------------
 218:.\StdPeriphLib\src/stm32f10x_flash.c ****    | FLASH_WaitForLastBank1Operation    |    Yes     |      Yes      | - Wait for Bank1 last operat
 219:.\StdPeriphLib\src/stm32f10x_flash.c ****    +-----------------------------------------------------------------------------------------------
 220:.\StdPeriphLib\src/stm32f10x_flash.c **** 
 221:.\StdPeriphLib\src/stm32f10x_flash.c ****    *****************************************************************************
 222:.\StdPeriphLib\src/stm32f10x_flash.c ****    * New Functions used only with STM32F10x_XL density devices to manage Bank2 *
 223:.\StdPeriphLib\src/stm32f10x_flash.c ****    *****************************************************************************
 224:.\StdPeriphLib\src/stm32f10x_flash.c ****    +-----------------------------------------------------------------------------------------------
 225:.\StdPeriphLib\src/stm32f10x_flash.c ****    |       Functions prototypes         |STM32F10x_XL|Other STM32F10x|    Comments                 
 226:.\StdPeriphLib\src/stm32f10x_flash.c ****    |                                    |   devices  |  devices      |                             
 227:.\StdPeriphLib\src/stm32f10x_flash.c ****    |-----------------------------------------------------------------------------------------------
 228:.\StdPeriphLib\src/stm32f10x_flash.c ****    | FLASH_UnlockBank2                  |    Yes     |      No       | - Unlock Bank2              
 229:.\StdPeriphLib\src/stm32f10x_flash.c ****    |-----------------------------------------------------------------------------------------------
 230:.\StdPeriphLib\src/stm32f10x_flash.c ****    |FLASH_LockBank2                     |    Yes     |      No       | - Lock Bank2                
 231:.\StdPeriphLib\src/stm32f10x_flash.c ****    |-----------------------------------------------------------------------------------------------
 232:.\StdPeriphLib\src/stm32f10x_flash.c ****    | FLASH_EraseAllBank2Pages           |    Yes     |      No       | - Erase all pages in Bank2  
 233:.\StdPeriphLib\src/stm32f10x_flash.c ****    |-----------------------------------------------------------------------------------------------
 234:.\StdPeriphLib\src/stm32f10x_flash.c ****    | FLASH_GetBank2Status               |    Yes     |      No       | - Return the status of Bank2
 235:.\StdPeriphLib\src/stm32f10x_flash.c ****    |-----------------------------------------------------------------------------------------------
 236:.\StdPeriphLib\src/stm32f10x_flash.c ****    | FLASH_WaitForLastBank2Operation    |    Yes     |      No       | - Wait for Bank2 last operat
 237:.\StdPeriphLib\src/stm32f10x_flash.c ****    |-----------------------------------------------------------------------------------------------
 238:.\StdPeriphLib\src/stm32f10x_flash.c ****    | FLASH_BootConfig                   |    Yes     |      No       | - Configure to boot from Ban
 239:.\StdPeriphLib\src/stm32f10x_flash.c ****    +-----------------------------------------------------------------------------------------------
 240:.\StdPeriphLib\src/stm32f10x_flash.c **** @endcode
 241:.\StdPeriphLib\src/stm32f10x_flash.c **** */
 242:.\StdPeriphLib\src/stm32f10x_flash.c **** 
 243:.\StdPeriphLib\src/stm32f10x_flash.c **** 
 244:.\StdPeriphLib\src/stm32f10x_flash.c **** /**
 245:.\StdPeriphLib\src/stm32f10x_flash.c ****   * @brief  Sets the code latency value.
 246:.\StdPeriphLib\src/stm32f10x_flash.c ****   * @note   This function can be used for all STM32F10x devices.
 247:.\StdPeriphLib\src/stm32f10x_flash.c ****   * @param  FLASH_Latency: specifies the FLASH Latency value.
 248:.\StdPeriphLib\src/stm32f10x_flash.c ****   *   This parameter can be one of the following values:
 249:.\StdPeriphLib\src/stm32f10x_flash.c ****   *     @arg FLASH_Latency_0: FLASH Zero Latency cycle
 250:.\StdPeriphLib\src/stm32f10x_flash.c ****   *     @arg FLASH_Latency_1: FLASH One Latency cycle
 251:.\StdPeriphLib\src/stm32f10x_flash.c ****   *     @arg FLASH_Latency_2: FLASH Two Latency cycles
 252:.\StdPeriphLib\src/stm32f10x_flash.c ****   * @retval None
 253:.\StdPeriphLib\src/stm32f10x_flash.c ****   */
 254:.\StdPeriphLib\src/stm32f10x_flash.c **** void FLASH_SetLatency(uint32_t FLASH_Latency)
 255:.\StdPeriphLib\src/stm32f10x_flash.c **** {
  27              		.loc 1 255 0
  28              		.cfi_startproc
  29              		@ args = 0, pretend = 0, frame = 0
  30              		@ frame_needed = 0, uses_anonymous_args = 0
  31              		@ link register save eliminated.
  32              	.LVL0:
 256:.\StdPeriphLib\src/stm32f10x_flash.c ****   uint32_t tmpreg = 0;
 257:.\StdPeriphLib\src/stm32f10x_flash.c ****   
 258:.\StdPeriphLib\src/stm32f10x_flash.c ****   /* Check the parameters */
 259:.\StdPeriphLib\src/stm32f10x_flash.c ****   assert_param(IS_FLASH_LATENCY(FLASH_Latency));
 260:.\StdPeriphLib\src/stm32f10x_flash.c ****   
 261:.\StdPeriphLib\src/stm32f10x_flash.c ****   /* Read the ACR register */
 262:.\StdPeriphLib\src/stm32f10x_flash.c ****   tmpreg = FLASH->ACR;  
  33              		.loc 1 262 0
  34 0000 034A     		ldr	r2, .L2
  35 0002 1368     		ldr	r3, [r2]
  36              	.LVL1:
 263:.\StdPeriphLib\src/stm32f10x_flash.c ****   
 264:.\StdPeriphLib\src/stm32f10x_flash.c ****   /* Sets the Latency value */
 265:.\StdPeriphLib\src/stm32f10x_flash.c ****   tmpreg &= ACR_LATENCY_Mask;
  37              		.loc 1 265 0
  38 0004 03F03803 		and	r3, r3, #56
  39              	.LVL2:
 266:.\StdPeriphLib\src/stm32f10x_flash.c ****   tmpreg |= FLASH_Latency;
  40              		.loc 1 266 0
  41 0008 1843     		orrs	r0, r0, r3
  42              	.LVL3:
 267:.\StdPeriphLib\src/stm32f10x_flash.c ****   
 268:.\StdPeriphLib\src/stm32f10x_flash.c ****   /* Write the ACR register */
 269:.\StdPeriphLib\src/stm32f10x_flash.c ****   FLASH->ACR = tmpreg;
  43              		.loc 1 269 0
  44 000a 1060     		str	r0, [r2]
  45 000c 7047     		bx	lr
  46              	.L3:
  47 000e 00BF     		.align	2
  48              	.L2:
  49 0010 00200240 		.word	1073881088
  50              		.cfi_endproc
  51              	.LFE29:
  53              		.section	.text.FLASH_HalfCycleAccessCmd,"ax",%progbits
  54              		.align	2
  55              		.global	FLASH_HalfCycleAccessCmd
  56              		.thumb
  57              		.thumb_func
  59              	FLASH_HalfCycleAccessCmd:
  60              	.LFB30:
 270:.\StdPeriphLib\src/stm32f10x_flash.c **** }
 271:.\StdPeriphLib\src/stm32f10x_flash.c **** 
 272:.\StdPeriphLib\src/stm32f10x_flash.c **** /**
 273:.\StdPeriphLib\src/stm32f10x_flash.c ****   * @brief  Enables or disables the Half cycle flash access.
 274:.\StdPeriphLib\src/stm32f10x_flash.c ****   * @note   This function can be used for all STM32F10x devices.
 275:.\StdPeriphLib\src/stm32f10x_flash.c ****   * @param  FLASH_HalfCycleAccess: specifies the FLASH Half cycle Access mode.
 276:.\StdPeriphLib\src/stm32f10x_flash.c ****   *   This parameter can be one of the following values:
 277:.\StdPeriphLib\src/stm32f10x_flash.c ****   *     @arg FLASH_HalfCycleAccess_Enable: FLASH Half Cycle Enable
 278:.\StdPeriphLib\src/stm32f10x_flash.c ****   *     @arg FLASH_HalfCycleAccess_Disable: FLASH Half Cycle Disable
 279:.\StdPeriphLib\src/stm32f10x_flash.c ****   * @retval None
 280:.\StdPeriphLib\src/stm32f10x_flash.c ****   */
 281:.\StdPeriphLib\src/stm32f10x_flash.c **** void FLASH_HalfCycleAccessCmd(uint32_t FLASH_HalfCycleAccess)
 282:.\StdPeriphLib\src/stm32f10x_flash.c **** {
  61              		.loc 1 282 0
  62              		.cfi_startproc
  63              		@ args = 0, pretend = 0, frame = 0
  64              		@ frame_needed = 0, uses_anonymous_args = 0
  65              		@ link register save eliminated.
  66              	.LVL4:
 283:.\StdPeriphLib\src/stm32f10x_flash.c ****   /* Check the parameters */
 284:.\StdPeriphLib\src/stm32f10x_flash.c ****   assert_param(IS_FLASH_HALFCYCLEACCESS_STATE(FLASH_HalfCycleAccess));
 285:.\StdPeriphLib\src/stm32f10x_flash.c ****   
 286:.\StdPeriphLib\src/stm32f10x_flash.c ****   /* Enable or disable the Half cycle access */
 287:.\StdPeriphLib\src/stm32f10x_flash.c ****   FLASH->ACR &= ACR_HLFCYA_Mask;
  67              		.loc 1 287 0
  68 0000 044B     		ldr	r3, .L5
  69 0002 1A68     		ldr	r2, [r3]
  70 0004 22F00802 		bic	r2, r2, #8
  71 0008 1A60     		str	r2, [r3]
 288:.\StdPeriphLib\src/stm32f10x_flash.c ****   FLASH->ACR |= FLASH_HalfCycleAccess;
  72              		.loc 1 288 0
  73 000a 1A68     		ldr	r2, [r3]
  74 000c 1043     		orrs	r0, r0, r2
  75              	.LVL5:
  76 000e 1860     		str	r0, [r3]
  77 0010 7047     		bx	lr
  78              	.L6:
  79 0012 00BF     		.align	2
  80              	.L5:
  81 0014 00200240 		.word	1073881088
  82              		.cfi_endproc
  83              	.LFE30:
  85              		.section	.text.FLASH_PrefetchBufferCmd,"ax",%progbits
  86              		.align	2
  87              		.global	FLASH_PrefetchBufferCmd
  88              		.thumb
  89              		.thumb_func
  91              	FLASH_PrefetchBufferCmd:
  92              	.LFB31:
 289:.\StdPeriphLib\src/stm32f10x_flash.c **** }
 290:.\StdPeriphLib\src/stm32f10x_flash.c **** 
 291:.\StdPeriphLib\src/stm32f10x_flash.c **** /**
 292:.\StdPeriphLib\src/stm32f10x_flash.c ****   * @brief  Enables or disables the Prefetch Buffer.
 293:.\StdPeriphLib\src/stm32f10x_flash.c ****   * @note   This function can be used for all STM32F10x devices.
 294:.\StdPeriphLib\src/stm32f10x_flash.c ****   * @param  FLASH_PrefetchBuffer: specifies the Prefetch buffer status.
 295:.\StdPeriphLib\src/stm32f10x_flash.c ****   *   This parameter can be one of the following values:
 296:.\StdPeriphLib\src/stm32f10x_flash.c ****   *     @arg FLASH_PrefetchBuffer_Enable: FLASH Prefetch Buffer Enable
 297:.\StdPeriphLib\src/stm32f10x_flash.c ****   *     @arg FLASH_PrefetchBuffer_Disable: FLASH Prefetch Buffer Disable
 298:.\StdPeriphLib\src/stm32f10x_flash.c ****   * @retval None
 299:.\StdPeriphLib\src/stm32f10x_flash.c ****   */
 300:.\StdPeriphLib\src/stm32f10x_flash.c **** void FLASH_PrefetchBufferCmd(uint32_t FLASH_PrefetchBuffer)
 301:.\StdPeriphLib\src/stm32f10x_flash.c **** {
  93              		.loc 1 301 0
  94              		.cfi_startproc
  95              		@ args = 0, pretend = 0, frame = 0
  96              		@ frame_needed = 0, uses_anonymous_args = 0
  97              		@ link register save eliminated.
  98              	.LVL6:
 302:.\StdPeriphLib\src/stm32f10x_flash.c ****   /* Check the parameters */
 303:.\StdPeriphLib\src/stm32f10x_flash.c ****   assert_param(IS_FLASH_PREFETCHBUFFER_STATE(FLASH_PrefetchBuffer));
 304:.\StdPeriphLib\src/stm32f10x_flash.c ****   
 305:.\StdPeriphLib\src/stm32f10x_flash.c ****   /* Enable or disable the Prefetch Buffer */
 306:.\StdPeriphLib\src/stm32f10x_flash.c ****   FLASH->ACR &= ACR_PRFTBE_Mask;
  99              		.loc 1 306 0
 100 0000 044B     		ldr	r3, .L8
 101 0002 1A68     		ldr	r2, [r3]
 102 0004 22F01002 		bic	r2, r2, #16
 103 0008 1A60     		str	r2, [r3]
 307:.\StdPeriphLib\src/stm32f10x_flash.c ****   FLASH->ACR |= FLASH_PrefetchBuffer;
 104              		.loc 1 307 0
 105 000a 1A68     		ldr	r2, [r3]
 106 000c 1043     		orrs	r0, r0, r2
 107              	.LVL7:
 108 000e 1860     		str	r0, [r3]
 109 0010 7047     		bx	lr
 110              	.L9:
 111 0012 00BF     		.align	2
 112              	.L8:
 113 0014 00200240 		.word	1073881088
 114              		.cfi_endproc
 115              	.LFE31:
 117              		.section	.text.FLASH_Unlock,"ax",%progbits
 118              		.align	2
 119              		.global	FLASH_Unlock
 120              		.thumb
 121              		.thumb_func
 123              	FLASH_Unlock:
 124              	.LFB32:
 308:.\StdPeriphLib\src/stm32f10x_flash.c **** }
 309:.\StdPeriphLib\src/stm32f10x_flash.c **** 
 310:.\StdPeriphLib\src/stm32f10x_flash.c **** /**
 311:.\StdPeriphLib\src/stm32f10x_flash.c ****   * @brief  Unlocks the FLASH Program Erase Controller.
 312:.\StdPeriphLib\src/stm32f10x_flash.c ****   * @note   This function can be used for all STM32F10x devices.
 313:.\StdPeriphLib\src/stm32f10x_flash.c ****   *         - For STM32F10X_XL devices this function unlocks Bank1 and Bank2.
 314:.\StdPeriphLib\src/stm32f10x_flash.c ****   *         - For all other devices it unlocks Bank1 and it is equivalent 
 315:.\StdPeriphLib\src/stm32f10x_flash.c ****   *           to FLASH_UnlockBank1 function.. 
 316:.\StdPeriphLib\src/stm32f10x_flash.c ****   * @param  None
 317:.\StdPeriphLib\src/stm32f10x_flash.c ****   * @retval None
 318:.\StdPeriphLib\src/stm32f10x_flash.c ****   */
 319:.\StdPeriphLib\src/stm32f10x_flash.c **** void FLASH_Unlock(void)
 320:.\StdPeriphLib\src/stm32f10x_flash.c **** {
 125              		.loc 1 320 0
 126              		.cfi_startproc
 127              		@ args = 0, pretend = 0, frame = 0
 128              		@ frame_needed = 0, uses_anonymous_args = 0
 129              		@ link register save eliminated.
 321:.\StdPeriphLib\src/stm32f10x_flash.c ****   /* Authorize the FPEC of Bank1 Access */
 322:.\StdPeriphLib\src/stm32f10x_flash.c ****   FLASH->KEYR = FLASH_KEY1;
 130              		.loc 1 322 0
 131 0000 034B     		ldr	r3, .L11
 132 0002 044A     		ldr	r2, .L11+4
 133 0004 5A60     		str	r2, [r3, #4]
 323:.\StdPeriphLib\src/stm32f10x_flash.c ****   FLASH->KEYR = FLASH_KEY2;
 134              		.loc 1 323 0
 135 0006 02F18832 		add	r2, r2, #-2004318072
 136 000a 5A60     		str	r2, [r3, #4]
 137 000c 7047     		bx	lr
 138              	.L12:
 139 000e 00BF     		.align	2
 140              	.L11:
 141 0010 00200240 		.word	1073881088
 142 0014 23016745 		.word	1164378403
 143              		.cfi_endproc
 144              	.LFE32:
 146              		.section	.text.FLASH_UnlockBank1,"ax",%progbits
 147              		.align	2
 148              		.global	FLASH_UnlockBank1
 149              		.thumb
 150              		.thumb_func
 152              	FLASH_UnlockBank1:
 153              	.LFB33:
 324:.\StdPeriphLib\src/stm32f10x_flash.c **** 
 325:.\StdPeriphLib\src/stm32f10x_flash.c **** #ifdef STM32F10X_XL
 326:.\StdPeriphLib\src/stm32f10x_flash.c ****   /* Authorize the FPEC of Bank2 Access */
 327:.\StdPeriphLib\src/stm32f10x_flash.c ****   FLASH->KEYR2 = FLASH_KEY1;
 328:.\StdPeriphLib\src/stm32f10x_flash.c ****   FLASH->KEYR2 = FLASH_KEY2;
 329:.\StdPeriphLib\src/stm32f10x_flash.c **** #endif /* STM32F10X_XL */
 330:.\StdPeriphLib\src/stm32f10x_flash.c **** }
 331:.\StdPeriphLib\src/stm32f10x_flash.c **** /**
 332:.\StdPeriphLib\src/stm32f10x_flash.c ****   * @brief  Unlocks the FLASH Bank1 Program Erase Controller.
 333:.\StdPeriphLib\src/stm32f10x_flash.c ****   * @note   This function can be used for all STM32F10x devices.
 334:.\StdPeriphLib\src/stm32f10x_flash.c ****   *         - For STM32F10X_XL devices this function unlocks Bank1.
 335:.\StdPeriphLib\src/stm32f10x_flash.c ****   *         - For all other devices it unlocks Bank1 and it is 
 336:.\StdPeriphLib\src/stm32f10x_flash.c ****   *           equivalent to FLASH_Unlock function.
 337:.\StdPeriphLib\src/stm32f10x_flash.c ****   * @param  None
 338:.\StdPeriphLib\src/stm32f10x_flash.c ****   * @retval None
 339:.\StdPeriphLib\src/stm32f10x_flash.c ****   */
 340:.\StdPeriphLib\src/stm32f10x_flash.c **** void FLASH_UnlockBank1(void)
 341:.\StdPeriphLib\src/stm32f10x_flash.c **** {
 154              		.loc 1 341 0
 155              		.cfi_startproc
 156              		@ args = 0, pretend = 0, frame = 0
 157              		@ frame_needed = 0, uses_anonymous_args = 0
 158              		@ link register save eliminated.
 342:.\StdPeriphLib\src/stm32f10x_flash.c ****   /* Authorize the FPEC of Bank1 Access */
 343:.\StdPeriphLib\src/stm32f10x_flash.c ****   FLASH->KEYR = FLASH_KEY1;
 159              		.loc 1 343 0
 160 0000 034B     		ldr	r3, .L14
 161 0002 044A     		ldr	r2, .L14+4
 162 0004 5A60     		str	r2, [r3, #4]
 344:.\StdPeriphLib\src/stm32f10x_flash.c ****   FLASH->KEYR = FLASH_KEY2;
 163              		.loc 1 344 0
 164 0006 02F18832 		add	r2, r2, #-2004318072
 165 000a 5A60     		str	r2, [r3, #4]
 166 000c 7047     		bx	lr
 167              	.L15:
 168 000e 00BF     		.align	2
 169              	.L14:
 170 0010 00200240 		.word	1073881088
 171 0014 23016745 		.word	1164378403
 172              		.cfi_endproc
 173              	.LFE33:
 175              		.section	.text.FLASH_Lock,"ax",%progbits
 176              		.align	2
 177              		.global	FLASH_Lock
 178              		.thumb
 179              		.thumb_func
 181              	FLASH_Lock:
 182              	.LFB34:
 345:.\StdPeriphLib\src/stm32f10x_flash.c **** }
 346:.\StdPeriphLib\src/stm32f10x_flash.c **** 
 347:.\StdPeriphLib\src/stm32f10x_flash.c **** #ifdef STM32F10X_XL
 348:.\StdPeriphLib\src/stm32f10x_flash.c **** /**
 349:.\StdPeriphLib\src/stm32f10x_flash.c ****   * @brief  Unlocks the FLASH Bank2 Program Erase Controller.
 350:.\StdPeriphLib\src/stm32f10x_flash.c ****   * @note   This function can be used only for STM32F10X_XL density devices.
 351:.\StdPeriphLib\src/stm32f10x_flash.c ****   * @param  None
 352:.\StdPeriphLib\src/stm32f10x_flash.c ****   * @retval None
 353:.\StdPeriphLib\src/stm32f10x_flash.c ****   */
 354:.\StdPeriphLib\src/stm32f10x_flash.c **** void FLASH_UnlockBank2(void)
 355:.\StdPeriphLib\src/stm32f10x_flash.c **** {
 356:.\StdPeriphLib\src/stm32f10x_flash.c ****   /* Authorize the FPEC of Bank2 Access */
 357:.\StdPeriphLib\src/stm32f10x_flash.c ****   FLASH->KEYR2 = FLASH_KEY1;
 358:.\StdPeriphLib\src/stm32f10x_flash.c ****   FLASH->KEYR2 = FLASH_KEY2;
 359:.\StdPeriphLib\src/stm32f10x_flash.c **** 
 360:.\StdPeriphLib\src/stm32f10x_flash.c **** }
 361:.\StdPeriphLib\src/stm32f10x_flash.c **** #endif /* STM32F10X_XL */
 362:.\StdPeriphLib\src/stm32f10x_flash.c **** 
 363:.\StdPeriphLib\src/stm32f10x_flash.c **** /**
 364:.\StdPeriphLib\src/stm32f10x_flash.c ****   * @brief  Locks the FLASH Program Erase Controller.
 365:.\StdPeriphLib\src/stm32f10x_flash.c ****   * @note   This function can be used for all STM32F10x devices.
 366:.\StdPeriphLib\src/stm32f10x_flash.c ****   *         - For STM32F10X_XL devices this function Locks Bank1 and Bank2.
 367:.\StdPeriphLib\src/stm32f10x_flash.c ****   *         - For all other devices it Locks Bank1 and it is equivalent 
 368:.\StdPeriphLib\src/stm32f10x_flash.c ****   *           to FLASH_LockBank1 function.
 369:.\StdPeriphLib\src/stm32f10x_flash.c ****   * @param  None
 370:.\StdPeriphLib\src/stm32f10x_flash.c ****   * @retval None
 371:.\StdPeriphLib\src/stm32f10x_flash.c ****   */
 372:.\StdPeriphLib\src/stm32f10x_flash.c **** void FLASH_Lock(void)
 373:.\StdPeriphLib\src/stm32f10x_flash.c **** {
 183              		.loc 1 373 0
 184              		.cfi_startproc
 185              		@ args = 0, pretend = 0, frame = 0
 186              		@ frame_needed = 0, uses_anonymous_args = 0
 187              		@ link register save eliminated.
 374:.\StdPeriphLib\src/stm32f10x_flash.c ****   /* Set the Lock Bit to lock the FPEC and the CR of  Bank1 */
 375:.\StdPeriphLib\src/stm32f10x_flash.c ****   FLASH->CR |= CR_LOCK_Set;
 188              		.loc 1 375 0
 189 0000 024A     		ldr	r2, .L17
 190 0002 1369     		ldr	r3, [r2, #16]
 191 0004 43F08003 		orr	r3, r3, #128
 192 0008 1361     		str	r3, [r2, #16]
 193 000a 7047     		bx	lr
 194              	.L18:
 195              		.align	2
 196              	.L17:
 197 000c 00200240 		.word	1073881088
 198              		.cfi_endproc
 199              	.LFE34:
 201              		.section	.text.FLASH_LockBank1,"ax",%progbits
 202              		.align	2
 203              		.global	FLASH_LockBank1
 204              		.thumb
 205              		.thumb_func
 207              	FLASH_LockBank1:
 208              	.LFB35:
 376:.\StdPeriphLib\src/stm32f10x_flash.c **** 
 377:.\StdPeriphLib\src/stm32f10x_flash.c **** #ifdef STM32F10X_XL
 378:.\StdPeriphLib\src/stm32f10x_flash.c ****   /* Set the Lock Bit to lock the FPEC and the CR of  Bank2 */
 379:.\StdPeriphLib\src/stm32f10x_flash.c ****   FLASH->CR2 |= CR_LOCK_Set;
 380:.\StdPeriphLib\src/stm32f10x_flash.c **** #endif /* STM32F10X_XL */
 381:.\StdPeriphLib\src/stm32f10x_flash.c **** }
 382:.\StdPeriphLib\src/stm32f10x_flash.c **** 
 383:.\StdPeriphLib\src/stm32f10x_flash.c **** /**
 384:.\StdPeriphLib\src/stm32f10x_flash.c ****   * @brief  Locks the FLASH Bank1 Program Erase Controller.
 385:.\StdPeriphLib\src/stm32f10x_flash.c ****   * @note   this function can be used for all STM32F10x devices.
 386:.\StdPeriphLib\src/stm32f10x_flash.c ****   *         - For STM32F10X_XL devices this function Locks Bank1.
 387:.\StdPeriphLib\src/stm32f10x_flash.c ****   *         - For all other devices it Locks Bank1 and it is equivalent 
 388:.\StdPeriphLib\src/stm32f10x_flash.c ****   *           to FLASH_Lock function.
 389:.\StdPeriphLib\src/stm32f10x_flash.c ****   * @param  None
 390:.\StdPeriphLib\src/stm32f10x_flash.c ****   * @retval None
 391:.\StdPeriphLib\src/stm32f10x_flash.c ****   */
 392:.\StdPeriphLib\src/stm32f10x_flash.c **** void FLASH_LockBank1(void)
 393:.\StdPeriphLib\src/stm32f10x_flash.c **** {
 209              		.loc 1 393 0
 210              		.cfi_startproc
 211              		@ args = 0, pretend = 0, frame = 0
 212              		@ frame_needed = 0, uses_anonymous_args = 0
 213              		@ link register save eliminated.
 394:.\StdPeriphLib\src/stm32f10x_flash.c ****   /* Set the Lock Bit to lock the FPEC and the CR of  Bank1 */
 395:.\StdPeriphLib\src/stm32f10x_flash.c ****   FLASH->CR |= CR_LOCK_Set;
 214              		.loc 1 395 0
 215 0000 024A     		ldr	r2, .L20
 216 0002 1369     		ldr	r3, [r2, #16]
 217 0004 43F08003 		orr	r3, r3, #128
 218 0008 1361     		str	r3, [r2, #16]
 219 000a 7047     		bx	lr
 220              	.L21:
 221              		.align	2
 222              	.L20:
 223 000c 00200240 		.word	1073881088
 224              		.cfi_endproc
 225              	.LFE35:
 227              		.section	.text.FLASH_GetUserOptionByte,"ax",%progbits
 228              		.align	2
 229              		.global	FLASH_GetUserOptionByte
 230              		.thumb
 231              		.thumb_func
 233              	FLASH_GetUserOptionByte:
 234              	.LFB46:
 396:.\StdPeriphLib\src/stm32f10x_flash.c **** }
 397:.\StdPeriphLib\src/stm32f10x_flash.c **** 
 398:.\StdPeriphLib\src/stm32f10x_flash.c **** #ifdef STM32F10X_XL
 399:.\StdPeriphLib\src/stm32f10x_flash.c **** /**
 400:.\StdPeriphLib\src/stm32f10x_flash.c ****   * @brief  Locks the FLASH Bank2 Program Erase Controller.
 401:.\StdPeriphLib\src/stm32f10x_flash.c ****   * @note   This function can be used only for STM32F10X_XL density devices.
 402:.\StdPeriphLib\src/stm32f10x_flash.c ****   * @param  None
 403:.\StdPeriphLib\src/stm32f10x_flash.c ****   * @retval None
 404:.\StdPeriphLib\src/stm32f10x_flash.c ****   */
 405:.\StdPeriphLib\src/stm32f10x_flash.c **** void FLASH_LockBank2(void)
 406:.\StdPeriphLib\src/stm32f10x_flash.c **** {
 407:.\StdPeriphLib\src/stm32f10x_flash.c ****   /* Set the Lock Bit to lock the FPEC and the CR of  Bank2 */
 408:.\StdPeriphLib\src/stm32f10x_flash.c ****   FLASH->CR2 |= CR_LOCK_Set;
 409:.\StdPeriphLib\src/stm32f10x_flash.c **** }
 410:.\StdPeriphLib\src/stm32f10x_flash.c **** #endif /* STM32F10X_XL */
 411:.\StdPeriphLib\src/stm32f10x_flash.c **** 
 412:.\StdPeriphLib\src/stm32f10x_flash.c **** /**
 413:.\StdPeriphLib\src/stm32f10x_flash.c ****   * @brief  Erases a specified FLASH page.
 414:.\StdPeriphLib\src/stm32f10x_flash.c ****   * @note   This function can be used for all STM32F10x devices.
 415:.\StdPeriphLib\src/stm32f10x_flash.c ****   * @param  Page_Address: The page address to be erased.
 416:.\StdPeriphLib\src/stm32f10x_flash.c ****   * @retval FLASH Status: The returned value can be: FLASH_BUSY, FLASH_ERROR_PG,
 417:.\StdPeriphLib\src/stm32f10x_flash.c ****   *         FLASH_ERROR_WRP, FLASH_COMPLETE or FLASH_TIMEOUT.
 418:.\StdPeriphLib\src/stm32f10x_flash.c ****   */
 419:.\StdPeriphLib\src/stm32f10x_flash.c **** FLASH_Status FLASH_ErasePage(uint32_t Page_Address)
 420:.\StdPeriphLib\src/stm32f10x_flash.c **** {
 421:.\StdPeriphLib\src/stm32f10x_flash.c ****   FLASH_Status status = FLASH_COMPLETE;
 422:.\StdPeriphLib\src/stm32f10x_flash.c ****   /* Check the parameters */
 423:.\StdPeriphLib\src/stm32f10x_flash.c ****   assert_param(IS_FLASH_ADDRESS(Page_Address));
 424:.\StdPeriphLib\src/stm32f10x_flash.c **** 
 425:.\StdPeriphLib\src/stm32f10x_flash.c **** #ifdef STM32F10X_XL
 426:.\StdPeriphLib\src/stm32f10x_flash.c ****   if(Page_Address < FLASH_BANK1_END_ADDRESS)  
 427:.\StdPeriphLib\src/stm32f10x_flash.c ****   {
 428:.\StdPeriphLib\src/stm32f10x_flash.c ****     /* Wait for last operation to be completed */
 429:.\StdPeriphLib\src/stm32f10x_flash.c ****     status = FLASH_WaitForLastBank1Operation(EraseTimeout);
 430:.\StdPeriphLib\src/stm32f10x_flash.c ****     if(status == FLASH_COMPLETE)
 431:.\StdPeriphLib\src/stm32f10x_flash.c ****     { 
 432:.\StdPeriphLib\src/stm32f10x_flash.c ****       /* if the previous operation is completed, proceed to erase the page */
 433:.\StdPeriphLib\src/stm32f10x_flash.c ****       FLASH->CR|= CR_PER_Set;
 434:.\StdPeriphLib\src/stm32f10x_flash.c ****       FLASH->AR = Page_Address; 
 435:.\StdPeriphLib\src/stm32f10x_flash.c ****       FLASH->CR|= CR_STRT_Set;
 436:.\StdPeriphLib\src/stm32f10x_flash.c ****     
 437:.\StdPeriphLib\src/stm32f10x_flash.c ****       /* Wait for last operation to be completed */
 438:.\StdPeriphLib\src/stm32f10x_flash.c ****       status = FLASH_WaitForLastBank1Operation(EraseTimeout);
 439:.\StdPeriphLib\src/stm32f10x_flash.c **** 
 440:.\StdPeriphLib\src/stm32f10x_flash.c ****       /* Disable the PER Bit */
 441:.\StdPeriphLib\src/stm32f10x_flash.c ****       FLASH->CR &= CR_PER_Reset;
 442:.\StdPeriphLib\src/stm32f10x_flash.c ****     }
 443:.\StdPeriphLib\src/stm32f10x_flash.c ****   }
 444:.\StdPeriphLib\src/stm32f10x_flash.c ****   else
 445:.\StdPeriphLib\src/stm32f10x_flash.c ****   {
 446:.\StdPeriphLib\src/stm32f10x_flash.c ****     /* Wait for last operation to be completed */
 447:.\StdPeriphLib\src/stm32f10x_flash.c ****     status = FLASH_WaitForLastBank2Operation(EraseTimeout);
 448:.\StdPeriphLib\src/stm32f10x_flash.c ****     if(status == FLASH_COMPLETE)
 449:.\StdPeriphLib\src/stm32f10x_flash.c ****     { 
 450:.\StdPeriphLib\src/stm32f10x_flash.c ****       /* if the previous operation is completed, proceed to erase the page */
 451:.\StdPeriphLib\src/stm32f10x_flash.c ****       FLASH->CR2|= CR_PER_Set;
 452:.\StdPeriphLib\src/stm32f10x_flash.c ****       FLASH->AR2 = Page_Address; 
 453:.\StdPeriphLib\src/stm32f10x_flash.c ****       FLASH->CR2|= CR_STRT_Set;
 454:.\StdPeriphLib\src/stm32f10x_flash.c ****     
 455:.\StdPeriphLib\src/stm32f10x_flash.c ****       /* Wait for last operation to be completed */
 456:.\StdPeriphLib\src/stm32f10x_flash.c ****       status = FLASH_WaitForLastBank2Operation(EraseTimeout);
 457:.\StdPeriphLib\src/stm32f10x_flash.c ****       
 458:.\StdPeriphLib\src/stm32f10x_flash.c ****       /* Disable the PER Bit */
 459:.\StdPeriphLib\src/stm32f10x_flash.c ****       FLASH->CR2 &= CR_PER_Reset;
 460:.\StdPeriphLib\src/stm32f10x_flash.c ****     }
 461:.\StdPeriphLib\src/stm32f10x_flash.c ****   }
 462:.\StdPeriphLib\src/stm32f10x_flash.c **** #else
 463:.\StdPeriphLib\src/stm32f10x_flash.c ****   /* Wait for last operation to be completed */
 464:.\StdPeriphLib\src/stm32f10x_flash.c ****   status = FLASH_WaitForLastOperation(EraseTimeout);
 465:.\StdPeriphLib\src/stm32f10x_flash.c ****   
 466:.\StdPeriphLib\src/stm32f10x_flash.c ****   if(status == FLASH_COMPLETE)
 467:.\StdPeriphLib\src/stm32f10x_flash.c ****   { 
 468:.\StdPeriphLib\src/stm32f10x_flash.c ****     /* if the previous operation is completed, proceed to erase the page */
 469:.\StdPeriphLib\src/stm32f10x_flash.c ****     FLASH->CR|= CR_PER_Set;
 470:.\StdPeriphLib\src/stm32f10x_flash.c ****     FLASH->AR = Page_Address; 
 471:.\StdPeriphLib\src/stm32f10x_flash.c ****     FLASH->CR|= CR_STRT_Set;
 472:.\StdPeriphLib\src/stm32f10x_flash.c ****     
 473:.\StdPeriphLib\src/stm32f10x_flash.c ****     /* Wait for last operation to be completed */
 474:.\StdPeriphLib\src/stm32f10x_flash.c ****     status = FLASH_WaitForLastOperation(EraseTimeout);
 475:.\StdPeriphLib\src/stm32f10x_flash.c ****     
 476:.\StdPeriphLib\src/stm32f10x_flash.c ****     /* Disable the PER Bit */
 477:.\StdPeriphLib\src/stm32f10x_flash.c ****     FLASH->CR &= CR_PER_Reset;
 478:.\StdPeriphLib\src/stm32f10x_flash.c ****   }
 479:.\StdPeriphLib\src/stm32f10x_flash.c **** #endif /* STM32F10X_XL */
 480:.\StdPeriphLib\src/stm32f10x_flash.c **** 
 481:.\StdPeriphLib\src/stm32f10x_flash.c ****   /* Return the Erase Status */
 482:.\StdPeriphLib\src/stm32f10x_flash.c ****   return status;
 483:.\StdPeriphLib\src/stm32f10x_flash.c **** }
 484:.\StdPeriphLib\src/stm32f10x_flash.c **** 
 485:.\StdPeriphLib\src/stm32f10x_flash.c **** /**
 486:.\StdPeriphLib\src/stm32f10x_flash.c ****   * @brief  Erases all FLASH pages.
 487:.\StdPeriphLib\src/stm32f10x_flash.c ****   * @note   This function can be used for all STM32F10x devices.
 488:.\StdPeriphLib\src/stm32f10x_flash.c ****   * @param  None
 489:.\StdPeriphLib\src/stm32f10x_flash.c ****   * @retval FLASH Status: The returned value can be: FLASH_ERROR_PG,
 490:.\StdPeriphLib\src/stm32f10x_flash.c ****   *         FLASH_ERROR_WRP, FLASH_COMPLETE or FLASH_TIMEOUT.
 491:.\StdPeriphLib\src/stm32f10x_flash.c ****   */
 492:.\StdPeriphLib\src/stm32f10x_flash.c **** FLASH_Status FLASH_EraseAllPages(void)
 493:.\StdPeriphLib\src/stm32f10x_flash.c **** {
 494:.\StdPeriphLib\src/stm32f10x_flash.c ****   FLASH_Status status = FLASH_COMPLETE;
 495:.\StdPeriphLib\src/stm32f10x_flash.c **** 
 496:.\StdPeriphLib\src/stm32f10x_flash.c **** #ifdef STM32F10X_XL
 497:.\StdPeriphLib\src/stm32f10x_flash.c ****   /* Wait for last operation to be completed */
 498:.\StdPeriphLib\src/stm32f10x_flash.c ****   status = FLASH_WaitForLastBank1Operation(EraseTimeout);
 499:.\StdPeriphLib\src/stm32f10x_flash.c ****   
 500:.\StdPeriphLib\src/stm32f10x_flash.c ****   if(status == FLASH_COMPLETE)
 501:.\StdPeriphLib\src/stm32f10x_flash.c ****   {
 502:.\StdPeriphLib\src/stm32f10x_flash.c ****     /* if the previous operation is completed, proceed to erase all pages */
 503:.\StdPeriphLib\src/stm32f10x_flash.c ****      FLASH->CR |= CR_MER_Set;
 504:.\StdPeriphLib\src/stm32f10x_flash.c ****      FLASH->CR |= CR_STRT_Set;
 505:.\StdPeriphLib\src/stm32f10x_flash.c ****     
 506:.\StdPeriphLib\src/stm32f10x_flash.c ****     /* Wait for last operation to be completed */
 507:.\StdPeriphLib\src/stm32f10x_flash.c ****     status = FLASH_WaitForLastBank1Operation(EraseTimeout);
 508:.\StdPeriphLib\src/stm32f10x_flash.c ****     
 509:.\StdPeriphLib\src/stm32f10x_flash.c ****     /* Disable the MER Bit */
 510:.\StdPeriphLib\src/stm32f10x_flash.c ****     FLASH->CR &= CR_MER_Reset;
 511:.\StdPeriphLib\src/stm32f10x_flash.c ****   }    
 512:.\StdPeriphLib\src/stm32f10x_flash.c ****   if(status == FLASH_COMPLETE)
 513:.\StdPeriphLib\src/stm32f10x_flash.c ****   {
 514:.\StdPeriphLib\src/stm32f10x_flash.c ****     /* if the previous operation is completed, proceed to erase all pages */
 515:.\StdPeriphLib\src/stm32f10x_flash.c ****      FLASH->CR2 |= CR_MER_Set;
 516:.\StdPeriphLib\src/stm32f10x_flash.c ****      FLASH->CR2 |= CR_STRT_Set;
 517:.\StdPeriphLib\src/stm32f10x_flash.c ****     
 518:.\StdPeriphLib\src/stm32f10x_flash.c ****     /* Wait for last operation to be completed */
 519:.\StdPeriphLib\src/stm32f10x_flash.c ****     status = FLASH_WaitForLastBank2Operation(EraseTimeout);
 520:.\StdPeriphLib\src/stm32f10x_flash.c ****     
 521:.\StdPeriphLib\src/stm32f10x_flash.c ****     /* Disable the MER Bit */
 522:.\StdPeriphLib\src/stm32f10x_flash.c ****     FLASH->CR2 &= CR_MER_Reset;
 523:.\StdPeriphLib\src/stm32f10x_flash.c ****   }
 524:.\StdPeriphLib\src/stm32f10x_flash.c **** #else
 525:.\StdPeriphLib\src/stm32f10x_flash.c ****   /* Wait for last operation to be completed */
 526:.\StdPeriphLib\src/stm32f10x_flash.c ****   status = FLASH_WaitForLastOperation(EraseTimeout);
 527:.\StdPeriphLib\src/stm32f10x_flash.c ****   if(status == FLASH_COMPLETE)
 528:.\StdPeriphLib\src/stm32f10x_flash.c ****   {
 529:.\StdPeriphLib\src/stm32f10x_flash.c ****     /* if the previous operation is completed, proceed to erase all pages */
 530:.\StdPeriphLib\src/stm32f10x_flash.c ****      FLASH->CR |= CR_MER_Set;
 531:.\StdPeriphLib\src/stm32f10x_flash.c ****      FLASH->CR |= CR_STRT_Set;
 532:.\StdPeriphLib\src/stm32f10x_flash.c ****     
 533:.\StdPeriphLib\src/stm32f10x_flash.c ****     /* Wait for last operation to be completed */
 534:.\StdPeriphLib\src/stm32f10x_flash.c ****     status = FLASH_WaitForLastOperation(EraseTimeout);
 535:.\StdPeriphLib\src/stm32f10x_flash.c **** 
 536:.\StdPeriphLib\src/stm32f10x_flash.c ****     /* Disable the MER Bit */
 537:.\StdPeriphLib\src/stm32f10x_flash.c ****     FLASH->CR &= CR_MER_Reset;
 538:.\StdPeriphLib\src/stm32f10x_flash.c ****   }
 539:.\StdPeriphLib\src/stm32f10x_flash.c **** #endif /* STM32F10X_XL */
 540:.\StdPeriphLib\src/stm32f10x_flash.c **** 
 541:.\StdPeriphLib\src/stm32f10x_flash.c ****   /* Return the Erase Status */
 542:.\StdPeriphLib\src/stm32f10x_flash.c ****   return status;
 543:.\StdPeriphLib\src/stm32f10x_flash.c **** }
 544:.\StdPeriphLib\src/stm32f10x_flash.c **** 
 545:.\StdPeriphLib\src/stm32f10x_flash.c **** /**
 546:.\StdPeriphLib\src/stm32f10x_flash.c ****   * @brief  Erases all Bank1 FLASH pages.
 547:.\StdPeriphLib\src/stm32f10x_flash.c ****   * @note   This function can be used for all STM32F10x devices.
 548:.\StdPeriphLib\src/stm32f10x_flash.c ****   *         - For STM32F10X_XL devices this function erases all Bank1 pages.
 549:.\StdPeriphLib\src/stm32f10x_flash.c ****   *         - For all other devices it erases all Bank1 pages and it is equivalent 
 550:.\StdPeriphLib\src/stm32f10x_flash.c ****   *           to FLASH_EraseAllPages function.
 551:.\StdPeriphLib\src/stm32f10x_flash.c ****   * @param  None
 552:.\StdPeriphLib\src/stm32f10x_flash.c ****   * @retval FLASH Status: The returned value can be: FLASH_ERROR_PG,
 553:.\StdPeriphLib\src/stm32f10x_flash.c ****   *         FLASH_ERROR_WRP, FLASH_COMPLETE or FLASH_TIMEOUT.
 554:.\StdPeriphLib\src/stm32f10x_flash.c ****   */
 555:.\StdPeriphLib\src/stm32f10x_flash.c **** FLASH_Status FLASH_EraseAllBank1Pages(void)
 556:.\StdPeriphLib\src/stm32f10x_flash.c **** {
 557:.\StdPeriphLib\src/stm32f10x_flash.c ****   FLASH_Status status = FLASH_COMPLETE;
 558:.\StdPeriphLib\src/stm32f10x_flash.c ****   /* Wait for last operation to be completed */
 559:.\StdPeriphLib\src/stm32f10x_flash.c ****   status = FLASH_WaitForLastBank1Operation(EraseTimeout);
 560:.\StdPeriphLib\src/stm32f10x_flash.c ****   
 561:.\StdPeriphLib\src/stm32f10x_flash.c ****   if(status == FLASH_COMPLETE)
 562:.\StdPeriphLib\src/stm32f10x_flash.c ****   {
 563:.\StdPeriphLib\src/stm32f10x_flash.c ****     /* if the previous operation is completed, proceed to erase all pages */
 564:.\StdPeriphLib\src/stm32f10x_flash.c ****      FLASH->CR |= CR_MER_Set;
 565:.\StdPeriphLib\src/stm32f10x_flash.c ****      FLASH->CR |= CR_STRT_Set;
 566:.\StdPeriphLib\src/stm32f10x_flash.c ****     
 567:.\StdPeriphLib\src/stm32f10x_flash.c ****     /* Wait for last operation to be completed */
 568:.\StdPeriphLib\src/stm32f10x_flash.c ****     status = FLASH_WaitForLastBank1Operation(EraseTimeout);
 569:.\StdPeriphLib\src/stm32f10x_flash.c ****     
 570:.\StdPeriphLib\src/stm32f10x_flash.c ****     /* Disable the MER Bit */
 571:.\StdPeriphLib\src/stm32f10x_flash.c ****     FLASH->CR &= CR_MER_Reset;
 572:.\StdPeriphLib\src/stm32f10x_flash.c ****   }    
 573:.\StdPeriphLib\src/stm32f10x_flash.c ****   /* Return the Erase Status */
 574:.\StdPeriphLib\src/stm32f10x_flash.c ****   return status;
 575:.\StdPeriphLib\src/stm32f10x_flash.c **** }
 576:.\StdPeriphLib\src/stm32f10x_flash.c **** 
 577:.\StdPeriphLib\src/stm32f10x_flash.c **** #ifdef STM32F10X_XL
 578:.\StdPeriphLib\src/stm32f10x_flash.c **** /**
 579:.\StdPeriphLib\src/stm32f10x_flash.c ****   * @brief  Erases all Bank2 FLASH pages.
 580:.\StdPeriphLib\src/stm32f10x_flash.c ****   * @note   This function can be used only for STM32F10x_XL density devices.
 581:.\StdPeriphLib\src/stm32f10x_flash.c ****   * @param  None
 582:.\StdPeriphLib\src/stm32f10x_flash.c ****   * @retval FLASH Status: The returned value can be: FLASH_ERROR_PG,
 583:.\StdPeriphLib\src/stm32f10x_flash.c ****   *         FLASH_ERROR_WRP, FLASH_COMPLETE or FLASH_TIMEOUT.
 584:.\StdPeriphLib\src/stm32f10x_flash.c ****   */
 585:.\StdPeriphLib\src/stm32f10x_flash.c **** FLASH_Status FLASH_EraseAllBank2Pages(void)
 586:.\StdPeriphLib\src/stm32f10x_flash.c **** {
 587:.\StdPeriphLib\src/stm32f10x_flash.c ****   FLASH_Status status = FLASH_COMPLETE;
 588:.\StdPeriphLib\src/stm32f10x_flash.c ****   /* Wait for last operation to be completed */
 589:.\StdPeriphLib\src/stm32f10x_flash.c ****   status = FLASH_WaitForLastBank2Operation(EraseTimeout);
 590:.\StdPeriphLib\src/stm32f10x_flash.c ****   
 591:.\StdPeriphLib\src/stm32f10x_flash.c ****   if(status == FLASH_COMPLETE)
 592:.\StdPeriphLib\src/stm32f10x_flash.c ****   {
 593:.\StdPeriphLib\src/stm32f10x_flash.c ****     /* if the previous operation is completed, proceed to erase all pages */
 594:.\StdPeriphLib\src/stm32f10x_flash.c ****      FLASH->CR2 |= CR_MER_Set;
 595:.\StdPeriphLib\src/stm32f10x_flash.c ****      FLASH->CR2 |= CR_STRT_Set;
 596:.\StdPeriphLib\src/stm32f10x_flash.c ****     
 597:.\StdPeriphLib\src/stm32f10x_flash.c ****     /* Wait for last operation to be completed */
 598:.\StdPeriphLib\src/stm32f10x_flash.c ****     status = FLASH_WaitForLastBank2Operation(EraseTimeout);
 599:.\StdPeriphLib\src/stm32f10x_flash.c **** 
 600:.\StdPeriphLib\src/stm32f10x_flash.c ****     /* Disable the MER Bit */
 601:.\StdPeriphLib\src/stm32f10x_flash.c ****     FLASH->CR2 &= CR_MER_Reset;
 602:.\StdPeriphLib\src/stm32f10x_flash.c ****   }    
 603:.\StdPeriphLib\src/stm32f10x_flash.c ****   /* Return the Erase Status */
 604:.\StdPeriphLib\src/stm32f10x_flash.c ****   return status;
 605:.\StdPeriphLib\src/stm32f10x_flash.c **** }
 606:.\StdPeriphLib\src/stm32f10x_flash.c **** #endif /* STM32F10X_XL */
 607:.\StdPeriphLib\src/stm32f10x_flash.c **** 
 608:.\StdPeriphLib\src/stm32f10x_flash.c **** /**
 609:.\StdPeriphLib\src/stm32f10x_flash.c ****   * @brief  Erases the FLASH option bytes.
 610:.\StdPeriphLib\src/stm32f10x_flash.c ****   * @note   This functions erases all option bytes except the Read protection (RDP). 
 611:.\StdPeriphLib\src/stm32f10x_flash.c ****   * @note   This function can be used for all STM32F10x devices.
 612:.\StdPeriphLib\src/stm32f10x_flash.c ****   * @param  None
 613:.\StdPeriphLib\src/stm32f10x_flash.c ****   * @retval FLASH Status: The returned value can be: FLASH_ERROR_PG,
 614:.\StdPeriphLib\src/stm32f10x_flash.c ****   *         FLASH_ERROR_WRP, FLASH_COMPLETE or FLASH_TIMEOUT.
 615:.\StdPeriphLib\src/stm32f10x_flash.c ****   */
 616:.\StdPeriphLib\src/stm32f10x_flash.c **** FLASH_Status FLASH_EraseOptionBytes(void)
 617:.\StdPeriphLib\src/stm32f10x_flash.c **** {
 618:.\StdPeriphLib\src/stm32f10x_flash.c ****   uint16_t rdptmp = RDP_Key;
 619:.\StdPeriphLib\src/stm32f10x_flash.c **** 
 620:.\StdPeriphLib\src/stm32f10x_flash.c ****   FLASH_Status status = FLASH_COMPLETE;
 621:.\StdPeriphLib\src/stm32f10x_flash.c **** 
 622:.\StdPeriphLib\src/stm32f10x_flash.c ****   /* Get the actual read protection Option Byte value */ 
 623:.\StdPeriphLib\src/stm32f10x_flash.c ****   if(FLASH_GetReadOutProtectionStatus() != RESET)
 624:.\StdPeriphLib\src/stm32f10x_flash.c ****   {
 625:.\StdPeriphLib\src/stm32f10x_flash.c ****     rdptmp = 0x00;  
 626:.\StdPeriphLib\src/stm32f10x_flash.c ****   }
 627:.\StdPeriphLib\src/stm32f10x_flash.c **** 
 628:.\StdPeriphLib\src/stm32f10x_flash.c ****   /* Wait for last operation to be completed */
 629:.\StdPeriphLib\src/stm32f10x_flash.c ****   status = FLASH_WaitForLastOperation(EraseTimeout);
 630:.\StdPeriphLib\src/stm32f10x_flash.c ****   if(status == FLASH_COMPLETE)
 631:.\StdPeriphLib\src/stm32f10x_flash.c ****   {
 632:.\StdPeriphLib\src/stm32f10x_flash.c ****     /* Authorize the small information block programming */
 633:.\StdPeriphLib\src/stm32f10x_flash.c ****     FLASH->OPTKEYR = FLASH_KEY1;
 634:.\StdPeriphLib\src/stm32f10x_flash.c ****     FLASH->OPTKEYR = FLASH_KEY2;
 635:.\StdPeriphLib\src/stm32f10x_flash.c ****     
 636:.\StdPeriphLib\src/stm32f10x_flash.c ****     /* if the previous operation is completed, proceed to erase the option bytes */
 637:.\StdPeriphLib\src/stm32f10x_flash.c ****     FLASH->CR |= CR_OPTER_Set;
 638:.\StdPeriphLib\src/stm32f10x_flash.c ****     FLASH->CR |= CR_STRT_Set;
 639:.\StdPeriphLib\src/stm32f10x_flash.c ****     /* Wait for last operation to be completed */
 640:.\StdPeriphLib\src/stm32f10x_flash.c ****     status = FLASH_WaitForLastOperation(EraseTimeout);
 641:.\StdPeriphLib\src/stm32f10x_flash.c ****     
 642:.\StdPeriphLib\src/stm32f10x_flash.c ****     if(status == FLASH_COMPLETE)
 643:.\StdPeriphLib\src/stm32f10x_flash.c ****     {
 644:.\StdPeriphLib\src/stm32f10x_flash.c ****       /* if the erase operation is completed, disable the OPTER Bit */
 645:.\StdPeriphLib\src/stm32f10x_flash.c ****       FLASH->CR &= CR_OPTER_Reset;
 646:.\StdPeriphLib\src/stm32f10x_flash.c ****        
 647:.\StdPeriphLib\src/stm32f10x_flash.c ****       /* Enable the Option Bytes Programming operation */
 648:.\StdPeriphLib\src/stm32f10x_flash.c ****       FLASH->CR |= CR_OPTPG_Set;
 649:.\StdPeriphLib\src/stm32f10x_flash.c ****       /* Restore the last read protection Option Byte value */
 650:.\StdPeriphLib\src/stm32f10x_flash.c ****       OB->RDP = (uint16_t)rdptmp; 
 651:.\StdPeriphLib\src/stm32f10x_flash.c ****       /* Wait for last operation to be completed */
 652:.\StdPeriphLib\src/stm32f10x_flash.c ****       status = FLASH_WaitForLastOperation(ProgramTimeout);
 653:.\StdPeriphLib\src/stm32f10x_flash.c ****  
 654:.\StdPeriphLib\src/stm32f10x_flash.c ****       if(status != FLASH_TIMEOUT)
 655:.\StdPeriphLib\src/stm32f10x_flash.c ****       {
 656:.\StdPeriphLib\src/stm32f10x_flash.c ****         /* if the program operation is completed, disable the OPTPG Bit */
 657:.\StdPeriphLib\src/stm32f10x_flash.c ****         FLASH->CR &= CR_OPTPG_Reset;
 658:.\StdPeriphLib\src/stm32f10x_flash.c ****       }
 659:.\StdPeriphLib\src/stm32f10x_flash.c ****     }
 660:.\StdPeriphLib\src/stm32f10x_flash.c ****     else
 661:.\StdPeriphLib\src/stm32f10x_flash.c ****     {
 662:.\StdPeriphLib\src/stm32f10x_flash.c ****       if (status != FLASH_TIMEOUT)
 663:.\StdPeriphLib\src/stm32f10x_flash.c ****       {
 664:.\StdPeriphLib\src/stm32f10x_flash.c ****         /* Disable the OPTPG Bit */
 665:.\StdPeriphLib\src/stm32f10x_flash.c ****         FLASH->CR &= CR_OPTPG_Reset;
 666:.\StdPeriphLib\src/stm32f10x_flash.c ****       }
 667:.\StdPeriphLib\src/stm32f10x_flash.c ****     }  
 668:.\StdPeriphLib\src/stm32f10x_flash.c ****   }
 669:.\StdPeriphLib\src/stm32f10x_flash.c ****   /* Return the erase status */
 670:.\StdPeriphLib\src/stm32f10x_flash.c ****   return status;
 671:.\StdPeriphLib\src/stm32f10x_flash.c **** }
 672:.\StdPeriphLib\src/stm32f10x_flash.c **** 
 673:.\StdPeriphLib\src/stm32f10x_flash.c **** /**
 674:.\StdPeriphLib\src/stm32f10x_flash.c ****   * @brief  Programs a word at a specified address.
 675:.\StdPeriphLib\src/stm32f10x_flash.c ****   * @note   This function can be used for all STM32F10x devices.
 676:.\StdPeriphLib\src/stm32f10x_flash.c ****   * @param  Address: specifies the address to be programmed.
 677:.\StdPeriphLib\src/stm32f10x_flash.c ****   * @param  Data: specifies the data to be programmed.
 678:.\StdPeriphLib\src/stm32f10x_flash.c ****   * @retval FLASH Status: The returned value can be: FLASH_ERROR_PG,
 679:.\StdPeriphLib\src/stm32f10x_flash.c ****   *         FLASH_ERROR_WRP, FLASH_COMPLETE or FLASH_TIMEOUT. 
 680:.\StdPeriphLib\src/stm32f10x_flash.c ****   */
 681:.\StdPeriphLib\src/stm32f10x_flash.c **** FLASH_Status FLASH_ProgramWord(uint32_t Address, uint32_t Data)
 682:.\StdPeriphLib\src/stm32f10x_flash.c **** {
 683:.\StdPeriphLib\src/stm32f10x_flash.c ****   FLASH_Status status = FLASH_COMPLETE;
 684:.\StdPeriphLib\src/stm32f10x_flash.c ****   __IO uint32_t tmp = 0;
 685:.\StdPeriphLib\src/stm32f10x_flash.c **** 
 686:.\StdPeriphLib\src/stm32f10x_flash.c ****   /* Check the parameters */
 687:.\StdPeriphLib\src/stm32f10x_flash.c ****   assert_param(IS_FLASH_ADDRESS(Address));
 688:.\StdPeriphLib\src/stm32f10x_flash.c **** 
 689:.\StdPeriphLib\src/stm32f10x_flash.c **** #ifdef STM32F10X_XL
 690:.\StdPeriphLib\src/stm32f10x_flash.c ****   if(Address < FLASH_BANK1_END_ADDRESS - 2)
 691:.\StdPeriphLib\src/stm32f10x_flash.c ****   { 
 692:.\StdPeriphLib\src/stm32f10x_flash.c ****     /* Wait for last operation to be completed */
 693:.\StdPeriphLib\src/stm32f10x_flash.c ****     status = FLASH_WaitForLastBank1Operation(ProgramTimeout); 
 694:.\StdPeriphLib\src/stm32f10x_flash.c ****     if(status == FLASH_COMPLETE)
 695:.\StdPeriphLib\src/stm32f10x_flash.c ****     {
 696:.\StdPeriphLib\src/stm32f10x_flash.c ****       /* if the previous operation is completed, proceed to program the new first 
 697:.\StdPeriphLib\src/stm32f10x_flash.c ****         half word */
 698:.\StdPeriphLib\src/stm32f10x_flash.c ****       FLASH->CR |= CR_PG_Set;
 699:.\StdPeriphLib\src/stm32f10x_flash.c ****   
 700:.\StdPeriphLib\src/stm32f10x_flash.c ****       *(__IO uint16_t*)Address = (uint16_t)Data;
 701:.\StdPeriphLib\src/stm32f10x_flash.c ****       /* Wait for last operation to be completed */
 702:.\StdPeriphLib\src/stm32f10x_flash.c ****       status = FLASH_WaitForLastOperation(ProgramTimeout);
 703:.\StdPeriphLib\src/stm32f10x_flash.c ****  
 704:.\StdPeriphLib\src/stm32f10x_flash.c ****       if(status == FLASH_COMPLETE)
 705:.\StdPeriphLib\src/stm32f10x_flash.c ****       {
 706:.\StdPeriphLib\src/stm32f10x_flash.c ****         /* if the previous operation is completed, proceed to program the new second 
 707:.\StdPeriphLib\src/stm32f10x_flash.c ****         half word */
 708:.\StdPeriphLib\src/stm32f10x_flash.c ****         tmp = Address + 2;
 709:.\StdPeriphLib\src/stm32f10x_flash.c **** 
 710:.\StdPeriphLib\src/stm32f10x_flash.c ****         *(__IO uint16_t*) tmp = Data >> 16;
 711:.\StdPeriphLib\src/stm32f10x_flash.c ****     
 712:.\StdPeriphLib\src/stm32f10x_flash.c ****         /* Wait for last operation to be completed */
 713:.\StdPeriphLib\src/stm32f10x_flash.c ****         status = FLASH_WaitForLastOperation(ProgramTimeout);
 714:.\StdPeriphLib\src/stm32f10x_flash.c ****         
 715:.\StdPeriphLib\src/stm32f10x_flash.c ****         /* Disable the PG Bit */
 716:.\StdPeriphLib\src/stm32f10x_flash.c ****         FLASH->CR &= CR_PG_Reset;
 717:.\StdPeriphLib\src/stm32f10x_flash.c ****       }
 718:.\StdPeriphLib\src/stm32f10x_flash.c ****       else
 719:.\StdPeriphLib\src/stm32f10x_flash.c ****       {
 720:.\StdPeriphLib\src/stm32f10x_flash.c ****         /* Disable the PG Bit */
 721:.\StdPeriphLib\src/stm32f10x_flash.c ****         FLASH->CR &= CR_PG_Reset;
 722:.\StdPeriphLib\src/stm32f10x_flash.c ****        }
 723:.\StdPeriphLib\src/stm32f10x_flash.c ****     }
 724:.\StdPeriphLib\src/stm32f10x_flash.c ****   }
 725:.\StdPeriphLib\src/stm32f10x_flash.c ****   else if(Address == (FLASH_BANK1_END_ADDRESS - 1))
 726:.\StdPeriphLib\src/stm32f10x_flash.c ****   {
 727:.\StdPeriphLib\src/stm32f10x_flash.c ****     /* Wait for last operation to be completed */
 728:.\StdPeriphLib\src/stm32f10x_flash.c ****     status = FLASH_WaitForLastBank1Operation(ProgramTimeout);
 729:.\StdPeriphLib\src/stm32f10x_flash.c **** 
 730:.\StdPeriphLib\src/stm32f10x_flash.c ****     if(status == FLASH_COMPLETE)
 731:.\StdPeriphLib\src/stm32f10x_flash.c ****     {
 732:.\StdPeriphLib\src/stm32f10x_flash.c ****       /* if the previous operation is completed, proceed to program the new first 
 733:.\StdPeriphLib\src/stm32f10x_flash.c ****         half word */
 734:.\StdPeriphLib\src/stm32f10x_flash.c ****       FLASH->CR |= CR_PG_Set;
 735:.\StdPeriphLib\src/stm32f10x_flash.c ****   
 736:.\StdPeriphLib\src/stm32f10x_flash.c ****       *(__IO uint16_t*)Address = (uint16_t)Data;
 737:.\StdPeriphLib\src/stm32f10x_flash.c **** 
 738:.\StdPeriphLib\src/stm32f10x_flash.c ****       /* Wait for last operation to be completed */
 739:.\StdPeriphLib\src/stm32f10x_flash.c ****       status = FLASH_WaitForLastBank1Operation(ProgramTimeout);
 740:.\StdPeriphLib\src/stm32f10x_flash.c ****       
 741:.\StdPeriphLib\src/stm32f10x_flash.c **** 	  /* Disable the PG Bit */
 742:.\StdPeriphLib\src/stm32f10x_flash.c ****       FLASH->CR &= CR_PG_Reset;
 743:.\StdPeriphLib\src/stm32f10x_flash.c ****     }
 744:.\StdPeriphLib\src/stm32f10x_flash.c ****     else
 745:.\StdPeriphLib\src/stm32f10x_flash.c ****     {
 746:.\StdPeriphLib\src/stm32f10x_flash.c ****       /* Disable the PG Bit */
 747:.\StdPeriphLib\src/stm32f10x_flash.c ****       FLASH->CR &= CR_PG_Reset;
 748:.\StdPeriphLib\src/stm32f10x_flash.c ****     }
 749:.\StdPeriphLib\src/stm32f10x_flash.c **** 
 750:.\StdPeriphLib\src/stm32f10x_flash.c ****     /* Wait for last operation to be completed */
 751:.\StdPeriphLib\src/stm32f10x_flash.c ****     status = FLASH_WaitForLastBank2Operation(ProgramTimeout);
 752:.\StdPeriphLib\src/stm32f10x_flash.c **** 
 753:.\StdPeriphLib\src/stm32f10x_flash.c ****     if(status == FLASH_COMPLETE)
 754:.\StdPeriphLib\src/stm32f10x_flash.c ****     {
 755:.\StdPeriphLib\src/stm32f10x_flash.c ****       /* if the previous operation is completed, proceed to program the new second 
 756:.\StdPeriphLib\src/stm32f10x_flash.c ****       half word */
 757:.\StdPeriphLib\src/stm32f10x_flash.c ****       FLASH->CR2 |= CR_PG_Set;
 758:.\StdPeriphLib\src/stm32f10x_flash.c ****       tmp = Address + 2;
 759:.\StdPeriphLib\src/stm32f10x_flash.c **** 
 760:.\StdPeriphLib\src/stm32f10x_flash.c ****       *(__IO uint16_t*) tmp = Data >> 16;
 761:.\StdPeriphLib\src/stm32f10x_flash.c ****     
 762:.\StdPeriphLib\src/stm32f10x_flash.c ****       /* Wait for last operation to be completed */
 763:.\StdPeriphLib\src/stm32f10x_flash.c ****       status = FLASH_WaitForLastBank2Operation(ProgramTimeout);
 764:.\StdPeriphLib\src/stm32f10x_flash.c ****         
 765:.\StdPeriphLib\src/stm32f10x_flash.c ****       /* Disable the PG Bit */
 766:.\StdPeriphLib\src/stm32f10x_flash.c ****       FLASH->CR2 &= CR_PG_Reset;
 767:.\StdPeriphLib\src/stm32f10x_flash.c ****     }
 768:.\StdPeriphLib\src/stm32f10x_flash.c ****     else
 769:.\StdPeriphLib\src/stm32f10x_flash.c ****     {
 770:.\StdPeriphLib\src/stm32f10x_flash.c ****       /* Disable the PG Bit */
 771:.\StdPeriphLib\src/stm32f10x_flash.c ****       FLASH->CR2 &= CR_PG_Reset;
 772:.\StdPeriphLib\src/stm32f10x_flash.c ****     }
 773:.\StdPeriphLib\src/stm32f10x_flash.c ****   }
 774:.\StdPeriphLib\src/stm32f10x_flash.c ****   else
 775:.\StdPeriphLib\src/stm32f10x_flash.c ****   {
 776:.\StdPeriphLib\src/stm32f10x_flash.c ****     /* Wait for last operation to be completed */
 777:.\StdPeriphLib\src/stm32f10x_flash.c ****     status = FLASH_WaitForLastBank2Operation(ProgramTimeout);
 778:.\StdPeriphLib\src/stm32f10x_flash.c **** 
 779:.\StdPeriphLib\src/stm32f10x_flash.c ****     if(status == FLASH_COMPLETE)
 780:.\StdPeriphLib\src/stm32f10x_flash.c ****     {
 781:.\StdPeriphLib\src/stm32f10x_flash.c ****       /* if the previous operation is completed, proceed to program the new first 
 782:.\StdPeriphLib\src/stm32f10x_flash.c ****         half word */
 783:.\StdPeriphLib\src/stm32f10x_flash.c ****       FLASH->CR2 |= CR_PG_Set;
 784:.\StdPeriphLib\src/stm32f10x_flash.c ****   
 785:.\StdPeriphLib\src/stm32f10x_flash.c ****       *(__IO uint16_t*)Address = (uint16_t)Data;
 786:.\StdPeriphLib\src/stm32f10x_flash.c ****       /* Wait for last operation to be completed */
 787:.\StdPeriphLib\src/stm32f10x_flash.c ****       status = FLASH_WaitForLastBank2Operation(ProgramTimeout);
 788:.\StdPeriphLib\src/stm32f10x_flash.c ****  
 789:.\StdPeriphLib\src/stm32f10x_flash.c ****       if(status == FLASH_COMPLETE)
 790:.\StdPeriphLib\src/stm32f10x_flash.c ****       {
 791:.\StdPeriphLib\src/stm32f10x_flash.c ****         /* if the previous operation is completed, proceed to program the new second 
 792:.\StdPeriphLib\src/stm32f10x_flash.c ****         half word */
 793:.\StdPeriphLib\src/stm32f10x_flash.c ****         tmp = Address + 2;
 794:.\StdPeriphLib\src/stm32f10x_flash.c **** 
 795:.\StdPeriphLib\src/stm32f10x_flash.c ****         *(__IO uint16_t*) tmp = Data >> 16;
 796:.\StdPeriphLib\src/stm32f10x_flash.c ****     
 797:.\StdPeriphLib\src/stm32f10x_flash.c ****         /* Wait for last operation to be completed */
 798:.\StdPeriphLib\src/stm32f10x_flash.c ****         status = FLASH_WaitForLastBank2Operation(ProgramTimeout);
 799:.\StdPeriphLib\src/stm32f10x_flash.c ****         
 800:.\StdPeriphLib\src/stm32f10x_flash.c ****         /* Disable the PG Bit */
 801:.\StdPeriphLib\src/stm32f10x_flash.c ****         FLASH->CR2 &= CR_PG_Reset;
 802:.\StdPeriphLib\src/stm32f10x_flash.c ****       }
 803:.\StdPeriphLib\src/stm32f10x_flash.c ****       else
 804:.\StdPeriphLib\src/stm32f10x_flash.c ****       {
 805:.\StdPeriphLib\src/stm32f10x_flash.c ****         /* Disable the PG Bit */
 806:.\StdPeriphLib\src/stm32f10x_flash.c ****         FLASH->CR2 &= CR_PG_Reset;
 807:.\StdPeriphLib\src/stm32f10x_flash.c ****       }
 808:.\StdPeriphLib\src/stm32f10x_flash.c ****     }
 809:.\StdPeriphLib\src/stm32f10x_flash.c ****   }
 810:.\StdPeriphLib\src/stm32f10x_flash.c **** #else
 811:.\StdPeriphLib\src/stm32f10x_flash.c ****   /* Wait for last operation to be completed */
 812:.\StdPeriphLib\src/stm32f10x_flash.c ****   status = FLASH_WaitForLastOperation(ProgramTimeout);
 813:.\StdPeriphLib\src/stm32f10x_flash.c ****   
 814:.\StdPeriphLib\src/stm32f10x_flash.c ****   if(status == FLASH_COMPLETE)
 815:.\StdPeriphLib\src/stm32f10x_flash.c ****   {
 816:.\StdPeriphLib\src/stm32f10x_flash.c ****     /* if the previous operation is completed, proceed to program the new first 
 817:.\StdPeriphLib\src/stm32f10x_flash.c ****     half word */
 818:.\StdPeriphLib\src/stm32f10x_flash.c ****     FLASH->CR |= CR_PG_Set;
 819:.\StdPeriphLib\src/stm32f10x_flash.c ****   
 820:.\StdPeriphLib\src/stm32f10x_flash.c ****     *(__IO uint16_t*)Address = (uint16_t)Data;
 821:.\StdPeriphLib\src/stm32f10x_flash.c ****     /* Wait for last operation to be completed */
 822:.\StdPeriphLib\src/stm32f10x_flash.c ****     status = FLASH_WaitForLastOperation(ProgramTimeout);
 823:.\StdPeriphLib\src/stm32f10x_flash.c ****  
 824:.\StdPeriphLib\src/stm32f10x_flash.c ****     if(status == FLASH_COMPLETE)
 825:.\StdPeriphLib\src/stm32f10x_flash.c ****     {
 826:.\StdPeriphLib\src/stm32f10x_flash.c ****       /* if the previous operation is completed, proceed to program the new second 
 827:.\StdPeriphLib\src/stm32f10x_flash.c ****       half word */
 828:.\StdPeriphLib\src/stm32f10x_flash.c ****       tmp = Address + 2;
 829:.\StdPeriphLib\src/stm32f10x_flash.c **** 
 830:.\StdPeriphLib\src/stm32f10x_flash.c ****       *(__IO uint16_t*) tmp = Data >> 16;
 831:.\StdPeriphLib\src/stm32f10x_flash.c ****     
 832:.\StdPeriphLib\src/stm32f10x_flash.c ****       /* Wait for last operation to be completed */
 833:.\StdPeriphLib\src/stm32f10x_flash.c ****       status = FLASH_WaitForLastOperation(ProgramTimeout);
 834:.\StdPeriphLib\src/stm32f10x_flash.c ****         
 835:.\StdPeriphLib\src/stm32f10x_flash.c ****       /* Disable the PG Bit */
 836:.\StdPeriphLib\src/stm32f10x_flash.c ****       FLASH->CR &= CR_PG_Reset;
 837:.\StdPeriphLib\src/stm32f10x_flash.c ****     }
 838:.\StdPeriphLib\src/stm32f10x_flash.c ****     else
 839:.\StdPeriphLib\src/stm32f10x_flash.c ****     {
 840:.\StdPeriphLib\src/stm32f10x_flash.c ****       /* Disable the PG Bit */
 841:.\StdPeriphLib\src/stm32f10x_flash.c ****       FLASH->CR &= CR_PG_Reset;
 842:.\StdPeriphLib\src/stm32f10x_flash.c ****     }
 843:.\StdPeriphLib\src/stm32f10x_flash.c ****   }         
 844:.\StdPeriphLib\src/stm32f10x_flash.c **** #endif /* STM32F10X_XL */
 845:.\StdPeriphLib\src/stm32f10x_flash.c ****    
 846:.\StdPeriphLib\src/stm32f10x_flash.c ****   /* Return the Program Status */
 847:.\StdPeriphLib\src/stm32f10x_flash.c ****   return status;
 848:.\StdPeriphLib\src/stm32f10x_flash.c **** }
 849:.\StdPeriphLib\src/stm32f10x_flash.c **** 
 850:.\StdPeriphLib\src/stm32f10x_flash.c **** /**
 851:.\StdPeriphLib\src/stm32f10x_flash.c ****   * @brief  Programs a half word at a specified address.
 852:.\StdPeriphLib\src/stm32f10x_flash.c ****   * @note   This function can be used for all STM32F10x devices.
 853:.\StdPeriphLib\src/stm32f10x_flash.c ****   * @param  Address: specifies the address to be programmed.
 854:.\StdPeriphLib\src/stm32f10x_flash.c ****   * @param  Data: specifies the data to be programmed.
 855:.\StdPeriphLib\src/stm32f10x_flash.c ****   * @retval FLASH Status: The returned value can be: FLASH_ERROR_PG,
 856:.\StdPeriphLib\src/stm32f10x_flash.c ****   *         FLASH_ERROR_WRP, FLASH_COMPLETE or FLASH_TIMEOUT. 
 857:.\StdPeriphLib\src/stm32f10x_flash.c ****   */
 858:.\StdPeriphLib\src/stm32f10x_flash.c **** FLASH_Status FLASH_ProgramHalfWord(uint32_t Address, uint16_t Data)
 859:.\StdPeriphLib\src/stm32f10x_flash.c **** {
 860:.\StdPeriphLib\src/stm32f10x_flash.c ****   FLASH_Status status = FLASH_COMPLETE;
 861:.\StdPeriphLib\src/stm32f10x_flash.c ****   /* Check the parameters */
 862:.\StdPeriphLib\src/stm32f10x_flash.c ****   assert_param(IS_FLASH_ADDRESS(Address));
 863:.\StdPeriphLib\src/stm32f10x_flash.c **** 
 864:.\StdPeriphLib\src/stm32f10x_flash.c **** #ifdef STM32F10X_XL
 865:.\StdPeriphLib\src/stm32f10x_flash.c ****   /* Wait for last operation to be completed */
 866:.\StdPeriphLib\src/stm32f10x_flash.c ****   status = FLASH_WaitForLastOperation(ProgramTimeout);
 867:.\StdPeriphLib\src/stm32f10x_flash.c ****   
 868:.\StdPeriphLib\src/stm32f10x_flash.c ****   if(Address < FLASH_BANK1_END_ADDRESS)
 869:.\StdPeriphLib\src/stm32f10x_flash.c ****   {
 870:.\StdPeriphLib\src/stm32f10x_flash.c ****     if(status == FLASH_COMPLETE)
 871:.\StdPeriphLib\src/stm32f10x_flash.c ****     {
 872:.\StdPeriphLib\src/stm32f10x_flash.c ****       /* if the previous operation is completed, proceed to program the new data */
 873:.\StdPeriphLib\src/stm32f10x_flash.c ****       FLASH->CR |= CR_PG_Set;
 874:.\StdPeriphLib\src/stm32f10x_flash.c ****   
 875:.\StdPeriphLib\src/stm32f10x_flash.c ****       *(__IO uint16_t*)Address = Data;
 876:.\StdPeriphLib\src/stm32f10x_flash.c ****       /* Wait for last operation to be completed */
 877:.\StdPeriphLib\src/stm32f10x_flash.c ****       status = FLASH_WaitForLastBank1Operation(ProgramTimeout);
 878:.\StdPeriphLib\src/stm32f10x_flash.c **** 
 879:.\StdPeriphLib\src/stm32f10x_flash.c ****       /* Disable the PG Bit */
 880:.\StdPeriphLib\src/stm32f10x_flash.c ****       FLASH->CR &= CR_PG_Reset;
 881:.\StdPeriphLib\src/stm32f10x_flash.c ****     }
 882:.\StdPeriphLib\src/stm32f10x_flash.c ****   }
 883:.\StdPeriphLib\src/stm32f10x_flash.c ****   else
 884:.\StdPeriphLib\src/stm32f10x_flash.c ****   {
 885:.\StdPeriphLib\src/stm32f10x_flash.c ****     if(status == FLASH_COMPLETE)
 886:.\StdPeriphLib\src/stm32f10x_flash.c ****     {
 887:.\StdPeriphLib\src/stm32f10x_flash.c ****       /* if the previous operation is completed, proceed to program the new data */
 888:.\StdPeriphLib\src/stm32f10x_flash.c ****       FLASH->CR2 |= CR_PG_Set;
 889:.\StdPeriphLib\src/stm32f10x_flash.c ****   
 890:.\StdPeriphLib\src/stm32f10x_flash.c ****       *(__IO uint16_t*)Address = Data;
 891:.\StdPeriphLib\src/stm32f10x_flash.c ****       /* Wait for last operation to be completed */
 892:.\StdPeriphLib\src/stm32f10x_flash.c ****       status = FLASH_WaitForLastBank2Operation(ProgramTimeout);
 893:.\StdPeriphLib\src/stm32f10x_flash.c **** 
 894:.\StdPeriphLib\src/stm32f10x_flash.c ****       /* Disable the PG Bit */
 895:.\StdPeriphLib\src/stm32f10x_flash.c ****       FLASH->CR2 &= CR_PG_Reset;
 896:.\StdPeriphLib\src/stm32f10x_flash.c ****     }
 897:.\StdPeriphLib\src/stm32f10x_flash.c ****   }
 898:.\StdPeriphLib\src/stm32f10x_flash.c **** #else
 899:.\StdPeriphLib\src/stm32f10x_flash.c ****   /* Wait for last operation to be completed */
 900:.\StdPeriphLib\src/stm32f10x_flash.c ****   status = FLASH_WaitForLastOperation(ProgramTimeout);
 901:.\StdPeriphLib\src/stm32f10x_flash.c ****   
 902:.\StdPeriphLib\src/stm32f10x_flash.c ****   if(status == FLASH_COMPLETE)
 903:.\StdPeriphLib\src/stm32f10x_flash.c ****   {
 904:.\StdPeriphLib\src/stm32f10x_flash.c ****     /* if the previous operation is completed, proceed to program the new data */
 905:.\StdPeriphLib\src/stm32f10x_flash.c ****     FLASH->CR |= CR_PG_Set;
 906:.\StdPeriphLib\src/stm32f10x_flash.c ****   
 907:.\StdPeriphLib\src/stm32f10x_flash.c ****     *(__IO uint16_t*)Address = Data;
 908:.\StdPeriphLib\src/stm32f10x_flash.c ****     /* Wait for last operation to be completed */
 909:.\StdPeriphLib\src/stm32f10x_flash.c ****     status = FLASH_WaitForLastOperation(ProgramTimeout);
 910:.\StdPeriphLib\src/stm32f10x_flash.c ****     
 911:.\StdPeriphLib\src/stm32f10x_flash.c ****     /* Disable the PG Bit */
 912:.\StdPeriphLib\src/stm32f10x_flash.c ****     FLASH->CR &= CR_PG_Reset;
 913:.\StdPeriphLib\src/stm32f10x_flash.c ****   } 
 914:.\StdPeriphLib\src/stm32f10x_flash.c **** #endif  /* STM32F10X_XL */
 915:.\StdPeriphLib\src/stm32f10x_flash.c ****   
 916:.\StdPeriphLib\src/stm32f10x_flash.c ****   /* Return the Program Status */
 917:.\StdPeriphLib\src/stm32f10x_flash.c ****   return status;
 918:.\StdPeriphLib\src/stm32f10x_flash.c **** }
 919:.\StdPeriphLib\src/stm32f10x_flash.c **** 
 920:.\StdPeriphLib\src/stm32f10x_flash.c **** /**
 921:.\StdPeriphLib\src/stm32f10x_flash.c ****   * @brief  Programs a half word at a specified Option Byte Data address.
 922:.\StdPeriphLib\src/stm32f10x_flash.c ****   * @note   This function can be used for all STM32F10x devices.
 923:.\StdPeriphLib\src/stm32f10x_flash.c ****   * @param  Address: specifies the address to be programmed.
 924:.\StdPeriphLib\src/stm32f10x_flash.c ****   *   This parameter can be 0x1FFFF804 or 0x1FFFF806. 
 925:.\StdPeriphLib\src/stm32f10x_flash.c ****   * @param  Data: specifies the data to be programmed.
 926:.\StdPeriphLib\src/stm32f10x_flash.c ****   * @retval FLASH Status: The returned value can be: FLASH_ERROR_PG,
 927:.\StdPeriphLib\src/stm32f10x_flash.c ****   *         FLASH_ERROR_WRP, FLASH_COMPLETE or FLASH_TIMEOUT. 
 928:.\StdPeriphLib\src/stm32f10x_flash.c ****   */
 929:.\StdPeriphLib\src/stm32f10x_flash.c **** FLASH_Status FLASH_ProgramOptionByteData(uint32_t Address, uint8_t Data)
 930:.\StdPeriphLib\src/stm32f10x_flash.c **** {
 931:.\StdPeriphLib\src/stm32f10x_flash.c ****   FLASH_Status status = FLASH_COMPLETE;
 932:.\StdPeriphLib\src/stm32f10x_flash.c ****   /* Check the parameters */
 933:.\StdPeriphLib\src/stm32f10x_flash.c ****   assert_param(IS_OB_DATA_ADDRESS(Address));
 934:.\StdPeriphLib\src/stm32f10x_flash.c ****   status = FLASH_WaitForLastOperation(ProgramTimeout);
 935:.\StdPeriphLib\src/stm32f10x_flash.c **** 
 936:.\StdPeriphLib\src/stm32f10x_flash.c ****   if(status == FLASH_COMPLETE)
 937:.\StdPeriphLib\src/stm32f10x_flash.c ****   {
 938:.\StdPeriphLib\src/stm32f10x_flash.c ****     /* Authorize the small information block programming */
 939:.\StdPeriphLib\src/stm32f10x_flash.c ****     FLASH->OPTKEYR = FLASH_KEY1;
 940:.\StdPeriphLib\src/stm32f10x_flash.c ****     FLASH->OPTKEYR = FLASH_KEY2;
 941:.\StdPeriphLib\src/stm32f10x_flash.c ****     /* Enables the Option Bytes Programming operation */
 942:.\StdPeriphLib\src/stm32f10x_flash.c ****     FLASH->CR |= CR_OPTPG_Set; 
 943:.\StdPeriphLib\src/stm32f10x_flash.c ****     *(__IO uint16_t*)Address = Data;
 944:.\StdPeriphLib\src/stm32f10x_flash.c ****     
 945:.\StdPeriphLib\src/stm32f10x_flash.c ****     /* Wait for last operation to be completed */
 946:.\StdPeriphLib\src/stm32f10x_flash.c ****     status = FLASH_WaitForLastOperation(ProgramTimeout);
 947:.\StdPeriphLib\src/stm32f10x_flash.c ****     if(status != FLASH_TIMEOUT)
 948:.\StdPeriphLib\src/stm32f10x_flash.c ****     {
 949:.\StdPeriphLib\src/stm32f10x_flash.c ****       /* if the program operation is completed, disable the OPTPG Bit */
 950:.\StdPeriphLib\src/stm32f10x_flash.c ****       FLASH->CR &= CR_OPTPG_Reset;
 951:.\StdPeriphLib\src/stm32f10x_flash.c ****     }
 952:.\StdPeriphLib\src/stm32f10x_flash.c ****   }
 953:.\StdPeriphLib\src/stm32f10x_flash.c ****   /* Return the Option Byte Data Program Status */
 954:.\StdPeriphLib\src/stm32f10x_flash.c ****   return status;
 955:.\StdPeriphLib\src/stm32f10x_flash.c **** }
 956:.\StdPeriphLib\src/stm32f10x_flash.c **** 
 957:.\StdPeriphLib\src/stm32f10x_flash.c **** /**
 958:.\StdPeriphLib\src/stm32f10x_flash.c ****   * @brief  Write protects the desired pages
 959:.\StdPeriphLib\src/stm32f10x_flash.c ****   * @note   This function can be used for all STM32F10x devices.
 960:.\StdPeriphLib\src/stm32f10x_flash.c ****   * @param  FLASH_Pages: specifies the address of the pages to be write protected.
 961:.\StdPeriphLib\src/stm32f10x_flash.c ****   *   This parameter can be:
 962:.\StdPeriphLib\src/stm32f10x_flash.c ****   *     @arg For @b STM32_Low-density_devices: value between FLASH_WRProt_Pages0to3 and FLASH_WRPro
 963:.\StdPeriphLib\src/stm32f10x_flash.c ****   *     @arg For @b STM32_Medium-density_devices: value between FLASH_WRProt_Pages0to3
 964:.\StdPeriphLib\src/stm32f10x_flash.c ****   *       and FLASH_WRProt_Pages124to127
 965:.\StdPeriphLib\src/stm32f10x_flash.c ****   *     @arg For @b STM32_High-density_devices: value between FLASH_WRProt_Pages0to1 and
 966:.\StdPeriphLib\src/stm32f10x_flash.c ****   *       FLASH_WRProt_Pages60to61 or FLASH_WRProt_Pages62to255
 967:.\StdPeriphLib\src/stm32f10x_flash.c ****   *     @arg For @b STM32_Connectivity_line_devices: value between FLASH_WRProt_Pages0to1 and
 968:.\StdPeriphLib\src/stm32f10x_flash.c ****   *       FLASH_WRProt_Pages60to61 or FLASH_WRProt_Pages62to127    
 969:.\StdPeriphLib\src/stm32f10x_flash.c ****   *     @arg For @b STM32_XL-density_devices: value between FLASH_WRProt_Pages0to1 and
 970:.\StdPeriphLib\src/stm32f10x_flash.c ****   *       FLASH_WRProt_Pages60to61 or FLASH_WRProt_Pages62to511
 971:.\StdPeriphLib\src/stm32f10x_flash.c ****   *     @arg FLASH_WRProt_AllPages
 972:.\StdPeriphLib\src/stm32f10x_flash.c ****   * @retval FLASH Status: The returned value can be: FLASH_ERROR_PG,
 973:.\StdPeriphLib\src/stm32f10x_flash.c ****   *         FLASH_ERROR_WRP, FLASH_COMPLETE or FLASH_TIMEOUT.
 974:.\StdPeriphLib\src/stm32f10x_flash.c ****   */
 975:.\StdPeriphLib\src/stm32f10x_flash.c **** FLASH_Status FLASH_EnableWriteProtection(uint32_t FLASH_Pages)
 976:.\StdPeriphLib\src/stm32f10x_flash.c **** {
 977:.\StdPeriphLib\src/stm32f10x_flash.c ****   uint16_t WRP0_Data = 0xFFFF, WRP1_Data = 0xFFFF, WRP2_Data = 0xFFFF, WRP3_Data = 0xFFFF;
 978:.\StdPeriphLib\src/stm32f10x_flash.c ****   
 979:.\StdPeriphLib\src/stm32f10x_flash.c ****   FLASH_Status status = FLASH_COMPLETE;
 980:.\StdPeriphLib\src/stm32f10x_flash.c ****   
 981:.\StdPeriphLib\src/stm32f10x_flash.c ****   /* Check the parameters */
 982:.\StdPeriphLib\src/stm32f10x_flash.c ****   assert_param(IS_FLASH_WRPROT_PAGE(FLASH_Pages));
 983:.\StdPeriphLib\src/stm32f10x_flash.c ****   
 984:.\StdPeriphLib\src/stm32f10x_flash.c ****   FLASH_Pages = (uint32_t)(~FLASH_Pages);
 985:.\StdPeriphLib\src/stm32f10x_flash.c ****   WRP0_Data = (uint16_t)(FLASH_Pages & WRP0_Mask);
 986:.\StdPeriphLib\src/stm32f10x_flash.c ****   WRP1_Data = (uint16_t)((FLASH_Pages & WRP1_Mask) >> 8);
 987:.\StdPeriphLib\src/stm32f10x_flash.c ****   WRP2_Data = (uint16_t)((FLASH_Pages & WRP2_Mask) >> 16);
 988:.\StdPeriphLib\src/stm32f10x_flash.c ****   WRP3_Data = (uint16_t)((FLASH_Pages & WRP3_Mask) >> 24);
 989:.\StdPeriphLib\src/stm32f10x_flash.c ****   
 990:.\StdPeriphLib\src/stm32f10x_flash.c ****   /* Wait for last operation to be completed */
 991:.\StdPeriphLib\src/stm32f10x_flash.c ****   status = FLASH_WaitForLastOperation(ProgramTimeout);
 992:.\StdPeriphLib\src/stm32f10x_flash.c ****   
 993:.\StdPeriphLib\src/stm32f10x_flash.c ****   if(status == FLASH_COMPLETE)
 994:.\StdPeriphLib\src/stm32f10x_flash.c ****   {
 995:.\StdPeriphLib\src/stm32f10x_flash.c ****     /* Authorizes the small information block programming */
 996:.\StdPeriphLib\src/stm32f10x_flash.c ****     FLASH->OPTKEYR = FLASH_KEY1;
 997:.\StdPeriphLib\src/stm32f10x_flash.c ****     FLASH->OPTKEYR = FLASH_KEY2;
 998:.\StdPeriphLib\src/stm32f10x_flash.c ****     FLASH->CR |= CR_OPTPG_Set;
 999:.\StdPeriphLib\src/stm32f10x_flash.c ****     if(WRP0_Data != 0xFF)
1000:.\StdPeriphLib\src/stm32f10x_flash.c ****     {
1001:.\StdPeriphLib\src/stm32f10x_flash.c ****       OB->WRP0 = WRP0_Data;
1002:.\StdPeriphLib\src/stm32f10x_flash.c ****       
1003:.\StdPeriphLib\src/stm32f10x_flash.c ****       /* Wait for last operation to be completed */
1004:.\StdPeriphLib\src/stm32f10x_flash.c ****       status = FLASH_WaitForLastOperation(ProgramTimeout);
1005:.\StdPeriphLib\src/stm32f10x_flash.c ****     }
1006:.\StdPeriphLib\src/stm32f10x_flash.c ****     if((status == FLASH_COMPLETE) && (WRP1_Data != 0xFF))
1007:.\StdPeriphLib\src/stm32f10x_flash.c ****     {
1008:.\StdPeriphLib\src/stm32f10x_flash.c ****       OB->WRP1 = WRP1_Data;
1009:.\StdPeriphLib\src/stm32f10x_flash.c ****       
1010:.\StdPeriphLib\src/stm32f10x_flash.c ****       /* Wait for last operation to be completed */
1011:.\StdPeriphLib\src/stm32f10x_flash.c ****       status = FLASH_WaitForLastOperation(ProgramTimeout);
1012:.\StdPeriphLib\src/stm32f10x_flash.c ****     }
1013:.\StdPeriphLib\src/stm32f10x_flash.c ****     if((status == FLASH_COMPLETE) && (WRP2_Data != 0xFF))
1014:.\StdPeriphLib\src/stm32f10x_flash.c ****     {
1015:.\StdPeriphLib\src/stm32f10x_flash.c ****       OB->WRP2 = WRP2_Data;
1016:.\StdPeriphLib\src/stm32f10x_flash.c ****       
1017:.\StdPeriphLib\src/stm32f10x_flash.c ****       /* Wait for last operation to be completed */
1018:.\StdPeriphLib\src/stm32f10x_flash.c ****       status = FLASH_WaitForLastOperation(ProgramTimeout);
1019:.\StdPeriphLib\src/stm32f10x_flash.c ****     }
1020:.\StdPeriphLib\src/stm32f10x_flash.c ****     
1021:.\StdPeriphLib\src/stm32f10x_flash.c ****     if((status == FLASH_COMPLETE)&& (WRP3_Data != 0xFF))
1022:.\StdPeriphLib\src/stm32f10x_flash.c ****     {
1023:.\StdPeriphLib\src/stm32f10x_flash.c ****       OB->WRP3 = WRP3_Data;
1024:.\StdPeriphLib\src/stm32f10x_flash.c ****      
1025:.\StdPeriphLib\src/stm32f10x_flash.c ****       /* Wait for last operation to be completed */
1026:.\StdPeriphLib\src/stm32f10x_flash.c ****       status = FLASH_WaitForLastOperation(ProgramTimeout);
1027:.\StdPeriphLib\src/stm32f10x_flash.c ****     }
1028:.\StdPeriphLib\src/stm32f10x_flash.c ****           
1029:.\StdPeriphLib\src/stm32f10x_flash.c ****     if(status != FLASH_TIMEOUT)
1030:.\StdPeriphLib\src/stm32f10x_flash.c ****     {
1031:.\StdPeriphLib\src/stm32f10x_flash.c ****       /* if the program operation is completed, disable the OPTPG Bit */
1032:.\StdPeriphLib\src/stm32f10x_flash.c ****       FLASH->CR &= CR_OPTPG_Reset;
1033:.\StdPeriphLib\src/stm32f10x_flash.c ****     }
1034:.\StdPeriphLib\src/stm32f10x_flash.c ****   } 
1035:.\StdPeriphLib\src/stm32f10x_flash.c ****   /* Return the write protection operation Status */
1036:.\StdPeriphLib\src/stm32f10x_flash.c ****   return status;       
1037:.\StdPeriphLib\src/stm32f10x_flash.c **** }
1038:.\StdPeriphLib\src/stm32f10x_flash.c **** 
1039:.\StdPeriphLib\src/stm32f10x_flash.c **** /**
1040:.\StdPeriphLib\src/stm32f10x_flash.c ****   * @brief  Enables or disables the read out protection.
1041:.\StdPeriphLib\src/stm32f10x_flash.c ****   * @note   If the user has already programmed the other option bytes before calling 
1042:.\StdPeriphLib\src/stm32f10x_flash.c ****   *   this function, he must re-program them since this function erases all option bytes.
1043:.\StdPeriphLib\src/stm32f10x_flash.c ****   * @note   This function can be used for all STM32F10x devices.
1044:.\StdPeriphLib\src/stm32f10x_flash.c ****   * @param  Newstate: new state of the ReadOut Protection.
1045:.\StdPeriphLib\src/stm32f10x_flash.c ****   *   This parameter can be: ENABLE or DISABLE.
1046:.\StdPeriphLib\src/stm32f10x_flash.c ****   * @retval FLASH Status: The returned value can be: FLASH_ERROR_PG,
1047:.\StdPeriphLib\src/stm32f10x_flash.c ****   *         FLASH_ERROR_WRP, FLASH_COMPLETE or FLASH_TIMEOUT.
1048:.\StdPeriphLib\src/stm32f10x_flash.c ****   */
1049:.\StdPeriphLib\src/stm32f10x_flash.c **** FLASH_Status FLASH_ReadOutProtection(FunctionalState NewState)
1050:.\StdPeriphLib\src/stm32f10x_flash.c **** {
1051:.\StdPeriphLib\src/stm32f10x_flash.c ****   FLASH_Status status = FLASH_COMPLETE;
1052:.\StdPeriphLib\src/stm32f10x_flash.c ****   /* Check the parameters */
1053:.\StdPeriphLib\src/stm32f10x_flash.c ****   assert_param(IS_FUNCTIONAL_STATE(NewState));
1054:.\StdPeriphLib\src/stm32f10x_flash.c ****   status = FLASH_WaitForLastOperation(EraseTimeout);
1055:.\StdPeriphLib\src/stm32f10x_flash.c ****   if(status == FLASH_COMPLETE)
1056:.\StdPeriphLib\src/stm32f10x_flash.c ****   {
1057:.\StdPeriphLib\src/stm32f10x_flash.c ****     /* Authorizes the small information block programming */
1058:.\StdPeriphLib\src/stm32f10x_flash.c ****     FLASH->OPTKEYR = FLASH_KEY1;
1059:.\StdPeriphLib\src/stm32f10x_flash.c ****     FLASH->OPTKEYR = FLASH_KEY2;
1060:.\StdPeriphLib\src/stm32f10x_flash.c ****     FLASH->CR |= CR_OPTER_Set;
1061:.\StdPeriphLib\src/stm32f10x_flash.c ****     FLASH->CR |= CR_STRT_Set;
1062:.\StdPeriphLib\src/stm32f10x_flash.c ****     /* Wait for last operation to be completed */
1063:.\StdPeriphLib\src/stm32f10x_flash.c ****     status = FLASH_WaitForLastOperation(EraseTimeout);
1064:.\StdPeriphLib\src/stm32f10x_flash.c ****     if(status == FLASH_COMPLETE)
1065:.\StdPeriphLib\src/stm32f10x_flash.c ****     {
1066:.\StdPeriphLib\src/stm32f10x_flash.c ****       /* if the erase operation is completed, disable the OPTER Bit */
1067:.\StdPeriphLib\src/stm32f10x_flash.c ****       FLASH->CR &= CR_OPTER_Reset;
1068:.\StdPeriphLib\src/stm32f10x_flash.c ****       /* Enable the Option Bytes Programming operation */
1069:.\StdPeriphLib\src/stm32f10x_flash.c ****       FLASH->CR |= CR_OPTPG_Set; 
1070:.\StdPeriphLib\src/stm32f10x_flash.c ****       if(NewState != DISABLE)
1071:.\StdPeriphLib\src/stm32f10x_flash.c ****       {
1072:.\StdPeriphLib\src/stm32f10x_flash.c ****         OB->RDP = 0x00;
1073:.\StdPeriphLib\src/stm32f10x_flash.c ****       }
1074:.\StdPeriphLib\src/stm32f10x_flash.c ****       else
1075:.\StdPeriphLib\src/stm32f10x_flash.c ****       {
1076:.\StdPeriphLib\src/stm32f10x_flash.c ****         OB->RDP = RDP_Key;  
1077:.\StdPeriphLib\src/stm32f10x_flash.c ****       }
1078:.\StdPeriphLib\src/stm32f10x_flash.c ****       /* Wait for last operation to be completed */
1079:.\StdPeriphLib\src/stm32f10x_flash.c ****       status = FLASH_WaitForLastOperation(EraseTimeout); 
1080:.\StdPeriphLib\src/stm32f10x_flash.c ****     
1081:.\StdPeriphLib\src/stm32f10x_flash.c ****       if(status != FLASH_TIMEOUT)
1082:.\StdPeriphLib\src/stm32f10x_flash.c ****       {
1083:.\StdPeriphLib\src/stm32f10x_flash.c ****         /* if the program operation is completed, disable the OPTPG Bit */
1084:.\StdPeriphLib\src/stm32f10x_flash.c ****         FLASH->CR &= CR_OPTPG_Reset;
1085:.\StdPeriphLib\src/stm32f10x_flash.c ****       }
1086:.\StdPeriphLib\src/stm32f10x_flash.c ****     }
1087:.\StdPeriphLib\src/stm32f10x_flash.c ****     else 
1088:.\StdPeriphLib\src/stm32f10x_flash.c ****     {
1089:.\StdPeriphLib\src/stm32f10x_flash.c ****       if(status != FLASH_TIMEOUT)
1090:.\StdPeriphLib\src/stm32f10x_flash.c ****       {
1091:.\StdPeriphLib\src/stm32f10x_flash.c ****         /* Disable the OPTER Bit */
1092:.\StdPeriphLib\src/stm32f10x_flash.c ****         FLASH->CR &= CR_OPTER_Reset;
1093:.\StdPeriphLib\src/stm32f10x_flash.c ****       }
1094:.\StdPeriphLib\src/stm32f10x_flash.c ****     }
1095:.\StdPeriphLib\src/stm32f10x_flash.c ****   }
1096:.\StdPeriphLib\src/stm32f10x_flash.c ****   /* Return the protection operation Status */
1097:.\StdPeriphLib\src/stm32f10x_flash.c ****   return status;       
1098:.\StdPeriphLib\src/stm32f10x_flash.c **** }
1099:.\StdPeriphLib\src/stm32f10x_flash.c **** 
1100:.\StdPeriphLib\src/stm32f10x_flash.c **** /**
1101:.\StdPeriphLib\src/stm32f10x_flash.c ****   * @brief  Programs the FLASH User Option Byte: IWDG_SW / RST_STOP / RST_STDBY.
1102:.\StdPeriphLib\src/stm32f10x_flash.c ****   * @note   This function can be used for all STM32F10x devices.
1103:.\StdPeriphLib\src/stm32f10x_flash.c ****   * @param  OB_IWDG: Selects the IWDG mode
1104:.\StdPeriphLib\src/stm32f10x_flash.c ****   *   This parameter can be one of the following values:
1105:.\StdPeriphLib\src/stm32f10x_flash.c ****   *     @arg OB_IWDG_SW: Software IWDG selected
1106:.\StdPeriphLib\src/stm32f10x_flash.c ****   *     @arg OB_IWDG_HW: Hardware IWDG selected
1107:.\StdPeriphLib\src/stm32f10x_flash.c ****   * @param  OB_STOP: Reset event when entering STOP mode.
1108:.\StdPeriphLib\src/stm32f10x_flash.c ****   *   This parameter can be one of the following values:
1109:.\StdPeriphLib\src/stm32f10x_flash.c ****   *     @arg OB_STOP_NoRST: No reset generated when entering in STOP
1110:.\StdPeriphLib\src/stm32f10x_flash.c ****   *     @arg OB_STOP_RST: Reset generated when entering in STOP
1111:.\StdPeriphLib\src/stm32f10x_flash.c ****   * @param  OB_STDBY: Reset event when entering Standby mode.
1112:.\StdPeriphLib\src/stm32f10x_flash.c ****   *   This parameter can be one of the following values:
1113:.\StdPeriphLib\src/stm32f10x_flash.c ****   *     @arg OB_STDBY_NoRST: No reset generated when entering in STANDBY
1114:.\StdPeriphLib\src/stm32f10x_flash.c ****   *     @arg OB_STDBY_RST: Reset generated when entering in STANDBY
1115:.\StdPeriphLib\src/stm32f10x_flash.c ****   * @retval FLASH Status: The returned value can be: FLASH_ERROR_PG, 
1116:.\StdPeriphLib\src/stm32f10x_flash.c ****   *         FLASH_ERROR_WRP, FLASH_COMPLETE or FLASH_TIMEOUT.
1117:.\StdPeriphLib\src/stm32f10x_flash.c ****   */
1118:.\StdPeriphLib\src/stm32f10x_flash.c **** FLASH_Status FLASH_UserOptionByteConfig(uint16_t OB_IWDG, uint16_t OB_STOP, uint16_t OB_STDBY)
1119:.\StdPeriphLib\src/stm32f10x_flash.c **** {
1120:.\StdPeriphLib\src/stm32f10x_flash.c ****   FLASH_Status status = FLASH_COMPLETE; 
1121:.\StdPeriphLib\src/stm32f10x_flash.c **** 
1122:.\StdPeriphLib\src/stm32f10x_flash.c ****   /* Check the parameters */
1123:.\StdPeriphLib\src/stm32f10x_flash.c ****   assert_param(IS_OB_IWDG_SOURCE(OB_IWDG));
1124:.\StdPeriphLib\src/stm32f10x_flash.c ****   assert_param(IS_OB_STOP_SOURCE(OB_STOP));
1125:.\StdPeriphLib\src/stm32f10x_flash.c ****   assert_param(IS_OB_STDBY_SOURCE(OB_STDBY));
1126:.\StdPeriphLib\src/stm32f10x_flash.c **** 
1127:.\StdPeriphLib\src/stm32f10x_flash.c ****   /* Authorize the small information block programming */
1128:.\StdPeriphLib\src/stm32f10x_flash.c ****   FLASH->OPTKEYR = FLASH_KEY1;
1129:.\StdPeriphLib\src/stm32f10x_flash.c ****   FLASH->OPTKEYR = FLASH_KEY2;
1130:.\StdPeriphLib\src/stm32f10x_flash.c ****   
1131:.\StdPeriphLib\src/stm32f10x_flash.c ****   /* Wait for last operation to be completed */
1132:.\StdPeriphLib\src/stm32f10x_flash.c ****   status = FLASH_WaitForLastOperation(ProgramTimeout);
1133:.\StdPeriphLib\src/stm32f10x_flash.c ****   
1134:.\StdPeriphLib\src/stm32f10x_flash.c ****   if(status == FLASH_COMPLETE)
1135:.\StdPeriphLib\src/stm32f10x_flash.c ****   {  
1136:.\StdPeriphLib\src/stm32f10x_flash.c ****     /* Enable the Option Bytes Programming operation */
1137:.\StdPeriphLib\src/stm32f10x_flash.c ****     FLASH->CR |= CR_OPTPG_Set; 
1138:.\StdPeriphLib\src/stm32f10x_flash.c ****            
1139:.\StdPeriphLib\src/stm32f10x_flash.c ****     OB->USER = OB_IWDG | (uint16_t)(OB_STOP | (uint16_t)(OB_STDBY | ((uint16_t)0xF8))); 
1140:.\StdPeriphLib\src/stm32f10x_flash.c ****   
1141:.\StdPeriphLib\src/stm32f10x_flash.c ****     /* Wait for last operation to be completed */
1142:.\StdPeriphLib\src/stm32f10x_flash.c ****     status = FLASH_WaitForLastOperation(ProgramTimeout);
1143:.\StdPeriphLib\src/stm32f10x_flash.c ****     if(status != FLASH_TIMEOUT)
1144:.\StdPeriphLib\src/stm32f10x_flash.c ****     {
1145:.\StdPeriphLib\src/stm32f10x_flash.c ****       /* if the program operation is completed, disable the OPTPG Bit */
1146:.\StdPeriphLib\src/stm32f10x_flash.c ****       FLASH->CR &= CR_OPTPG_Reset;
1147:.\StdPeriphLib\src/stm32f10x_flash.c ****     }
1148:.\StdPeriphLib\src/stm32f10x_flash.c ****   }    
1149:.\StdPeriphLib\src/stm32f10x_flash.c ****   /* Return the Option Byte program Status */
1150:.\StdPeriphLib\src/stm32f10x_flash.c ****   return status;
1151:.\StdPeriphLib\src/stm32f10x_flash.c **** }
1152:.\StdPeriphLib\src/stm32f10x_flash.c **** 
1153:.\StdPeriphLib\src/stm32f10x_flash.c **** #ifdef STM32F10X_XL
1154:.\StdPeriphLib\src/stm32f10x_flash.c **** /**
1155:.\StdPeriphLib\src/stm32f10x_flash.c ****   * @brief  Configures to boot from Bank1 or Bank2.  
1156:.\StdPeriphLib\src/stm32f10x_flash.c ****   * @note   This function can be used only for STM32F10x_XL density devices.
1157:.\StdPeriphLib\src/stm32f10x_flash.c ****   * @param  FLASH_BOOT: select the FLASH Bank to boot from.
1158:.\StdPeriphLib\src/stm32f10x_flash.c ****   *   This parameter can be one of the following values:
1159:.\StdPeriphLib\src/stm32f10x_flash.c ****   *     @arg FLASH_BOOT_Bank1: At startup, if boot pins are set in boot from user Flash
1160:.\StdPeriphLib\src/stm32f10x_flash.c ****   *        position and this parameter is selected the device will boot from Bank1(Default).
1161:.\StdPeriphLib\src/stm32f10x_flash.c ****   *     @arg FLASH_BOOT_Bank2: At startup, if boot pins are set in boot from user Flash
1162:.\StdPeriphLib\src/stm32f10x_flash.c ****   *        position and this parameter is selected the device will boot from Bank2 or Bank1,
1163:.\StdPeriphLib\src/stm32f10x_flash.c ****   *        depending on the activation of the bank. The active banks are checked in
1164:.\StdPeriphLib\src/stm32f10x_flash.c ****   *        the following order: Bank2, followed by Bank1.
1165:.\StdPeriphLib\src/stm32f10x_flash.c ****   *        The active bank is recognized by the value programmed at the base address
1166:.\StdPeriphLib\src/stm32f10x_flash.c ****   *        of the respective bank (corresponding to the initial stack pointer value
1167:.\StdPeriphLib\src/stm32f10x_flash.c ****   *        in the interrupt vector table).
1168:.\StdPeriphLib\src/stm32f10x_flash.c ****   *        For more information, please refer to AN2606 from www.st.com.    
1169:.\StdPeriphLib\src/stm32f10x_flash.c ****   * @retval FLASH Status: The returned value can be: FLASH_ERROR_PG, 
1170:.\StdPeriphLib\src/stm32f10x_flash.c ****   *         FLASH_ERROR_WRP, FLASH_COMPLETE or FLASH_TIMEOUT.
1171:.\StdPeriphLib\src/stm32f10x_flash.c ****   */
1172:.\StdPeriphLib\src/stm32f10x_flash.c **** FLASH_Status FLASH_BootConfig(uint16_t FLASH_BOOT)
1173:.\StdPeriphLib\src/stm32f10x_flash.c **** { 
1174:.\StdPeriphLib\src/stm32f10x_flash.c ****   FLASH_Status status = FLASH_COMPLETE; 
1175:.\StdPeriphLib\src/stm32f10x_flash.c ****   assert_param(IS_FLASH_BOOT(FLASH_BOOT));
1176:.\StdPeriphLib\src/stm32f10x_flash.c ****   /* Authorize the small information block programming */
1177:.\StdPeriphLib\src/stm32f10x_flash.c ****   FLASH->OPTKEYR = FLASH_KEY1;
1178:.\StdPeriphLib\src/stm32f10x_flash.c ****   FLASH->OPTKEYR = FLASH_KEY2;
1179:.\StdPeriphLib\src/stm32f10x_flash.c ****   
1180:.\StdPeriphLib\src/stm32f10x_flash.c ****   /* Wait for last operation to be completed */
1181:.\StdPeriphLib\src/stm32f10x_flash.c ****   status = FLASH_WaitForLastOperation(ProgramTimeout);
1182:.\StdPeriphLib\src/stm32f10x_flash.c ****   
1183:.\StdPeriphLib\src/stm32f10x_flash.c ****   if(status == FLASH_COMPLETE)
1184:.\StdPeriphLib\src/stm32f10x_flash.c ****   {  
1185:.\StdPeriphLib\src/stm32f10x_flash.c ****     /* Enable the Option Bytes Programming operation */
1186:.\StdPeriphLib\src/stm32f10x_flash.c ****     FLASH->CR |= CR_OPTPG_Set; 
1187:.\StdPeriphLib\src/stm32f10x_flash.c **** 
1188:.\StdPeriphLib\src/stm32f10x_flash.c ****     if(FLASH_BOOT == FLASH_BOOT_Bank1)
1189:.\StdPeriphLib\src/stm32f10x_flash.c ****     {
1190:.\StdPeriphLib\src/stm32f10x_flash.c ****       OB->USER |= OB_USER_BFB2;
1191:.\StdPeriphLib\src/stm32f10x_flash.c ****     }
1192:.\StdPeriphLib\src/stm32f10x_flash.c ****     else
1193:.\StdPeriphLib\src/stm32f10x_flash.c ****     {
1194:.\StdPeriphLib\src/stm32f10x_flash.c ****       OB->USER &= (uint16_t)(~(uint16_t)(OB_USER_BFB2));
1195:.\StdPeriphLib\src/stm32f10x_flash.c ****     }
1196:.\StdPeriphLib\src/stm32f10x_flash.c ****     /* Wait for last operation to be completed */
1197:.\StdPeriphLib\src/stm32f10x_flash.c ****     status = FLASH_WaitForLastOperation(ProgramTimeout);
1198:.\StdPeriphLib\src/stm32f10x_flash.c ****     if(status != FLASH_TIMEOUT)
1199:.\StdPeriphLib\src/stm32f10x_flash.c ****     {
1200:.\StdPeriphLib\src/stm32f10x_flash.c ****       /* if the program operation is completed, disable the OPTPG Bit */
1201:.\StdPeriphLib\src/stm32f10x_flash.c ****       FLASH->CR &= CR_OPTPG_Reset;
1202:.\StdPeriphLib\src/stm32f10x_flash.c ****     }
1203:.\StdPeriphLib\src/stm32f10x_flash.c ****   }    
1204:.\StdPeriphLib\src/stm32f10x_flash.c ****   /* Return the Option Byte program Status */
1205:.\StdPeriphLib\src/stm32f10x_flash.c ****   return status;
1206:.\StdPeriphLib\src/stm32f10x_flash.c **** }
1207:.\StdPeriphLib\src/stm32f10x_flash.c **** #endif /* STM32F10X_XL */
1208:.\StdPeriphLib\src/stm32f10x_flash.c **** 
1209:.\StdPeriphLib\src/stm32f10x_flash.c **** /**
1210:.\StdPeriphLib\src/stm32f10x_flash.c ****   * @brief  Returns the FLASH User Option Bytes values.
1211:.\StdPeriphLib\src/stm32f10x_flash.c ****   * @note   This function can be used for all STM32F10x devices.
1212:.\StdPeriphLib\src/stm32f10x_flash.c ****   * @param  None
1213:.\StdPeriphLib\src/stm32f10x_flash.c ****   * @retval The FLASH User Option Bytes values:IWDG_SW(Bit0), RST_STOP(Bit1)
1214:.\StdPeriphLib\src/stm32f10x_flash.c ****   *         and RST_STDBY(Bit2).
1215:.\StdPeriphLib\src/stm32f10x_flash.c ****   */
1216:.\StdPeriphLib\src/stm32f10x_flash.c **** uint32_t FLASH_GetUserOptionByte(void)
1217:.\StdPeriphLib\src/stm32f10x_flash.c **** {
 235              		.loc 1 1217 0
 236              		.cfi_startproc
 237              		@ args = 0, pretend = 0, frame = 0
 238              		@ frame_needed = 0, uses_anonymous_args = 0
 239              		@ link register save eliminated.
1218:.\StdPeriphLib\src/stm32f10x_flash.c ****   /* Return the User Option Byte */
1219:.\StdPeriphLib\src/stm32f10x_flash.c ****   return (uint32_t)(FLASH->OBR >> 2);
 240              		.loc 1 1219 0
 241 0000 014B     		ldr	r3, .L23
 242 0002 D869     		ldr	r0, [r3, #28]
1220:.\StdPeriphLib\src/stm32f10x_flash.c **** }
 243              		.loc 1 1220 0
 244 0004 8008     		lsrs	r0, r0, #2
 245 0006 7047     		bx	lr
 246              	.L24:
 247              		.align	2
 248              	.L23:
 249 0008 00200240 		.word	1073881088
 250              		.cfi_endproc
 251              	.LFE46:
 253              		.section	.text.FLASH_GetWriteProtectionOptionByte,"ax",%progbits
 254              		.align	2
 255              		.global	FLASH_GetWriteProtectionOptionByte
 256              		.thumb
 257              		.thumb_func
 259              	FLASH_GetWriteProtectionOptionByte:
 260              	.LFB47:
1221:.\StdPeriphLib\src/stm32f10x_flash.c **** 
1222:.\StdPeriphLib\src/stm32f10x_flash.c **** /**
1223:.\StdPeriphLib\src/stm32f10x_flash.c ****   * @brief  Returns the FLASH Write Protection Option Bytes Register value.
1224:.\StdPeriphLib\src/stm32f10x_flash.c ****   * @note   This function can be used for all STM32F10x devices.
1225:.\StdPeriphLib\src/stm32f10x_flash.c ****   * @param  None
1226:.\StdPeriphLib\src/stm32f10x_flash.c ****   * @retval The FLASH Write Protection  Option Bytes Register value
1227:.\StdPeriphLib\src/stm32f10x_flash.c ****   */
1228:.\StdPeriphLib\src/stm32f10x_flash.c **** uint32_t FLASH_GetWriteProtectionOptionByte(void)
1229:.\StdPeriphLib\src/stm32f10x_flash.c **** {
 261              		.loc 1 1229 0
 262              		.cfi_startproc
 263              		@ args = 0, pretend = 0, frame = 0
 264              		@ frame_needed = 0, uses_anonymous_args = 0
 265              		@ link register save eliminated.
1230:.\StdPeriphLib\src/stm32f10x_flash.c ****   /* Return the Flash write protection Register value */
1231:.\StdPeriphLib\src/stm32f10x_flash.c ****   return (uint32_t)(FLASH->WRPR);
 266              		.loc 1 1231 0
 267 0000 014B     		ldr	r3, .L26
 268 0002 186A     		ldr	r0, [r3, #32]
1232:.\StdPeriphLib\src/stm32f10x_flash.c **** }
 269              		.loc 1 1232 0
 270 0004 7047     		bx	lr
 271              	.L27:
 272 0006 00BF     		.align	2
 273              	.L26:
 274 0008 00200240 		.word	1073881088
 275              		.cfi_endproc
 276              	.LFE47:
 278              		.section	.text.FLASH_GetReadOutProtectionStatus,"ax",%progbits
 279              		.align	2
 280              		.global	FLASH_GetReadOutProtectionStatus
 281              		.thumb
 282              		.thumb_func
 284              	FLASH_GetReadOutProtectionStatus:
 285              	.LFB48:
1233:.\StdPeriphLib\src/stm32f10x_flash.c **** 
1234:.\StdPeriphLib\src/stm32f10x_flash.c **** /**
1235:.\StdPeriphLib\src/stm32f10x_flash.c ****   * @brief  Checks whether the FLASH Read Out Protection Status is set or not.
1236:.\StdPeriphLib\src/stm32f10x_flash.c ****   * @note   This function can be used for all STM32F10x devices.
1237:.\StdPeriphLib\src/stm32f10x_flash.c ****   * @param  None
1238:.\StdPeriphLib\src/stm32f10x_flash.c ****   * @retval FLASH ReadOut Protection Status(SET or RESET)
1239:.\StdPeriphLib\src/stm32f10x_flash.c ****   */
1240:.\StdPeriphLib\src/stm32f10x_flash.c **** FlagStatus FLASH_GetReadOutProtectionStatus(void)
1241:.\StdPeriphLib\src/stm32f10x_flash.c **** {
 286              		.loc 1 1241 0
 287              		.cfi_startproc
 288              		@ args = 0, pretend = 0, frame = 0
 289              		@ frame_needed = 0, uses_anonymous_args = 0
 290              		@ link register save eliminated.
 291              	.LVL8:
1242:.\StdPeriphLib\src/stm32f10x_flash.c ****   FlagStatus readoutstatus = RESET;
1243:.\StdPeriphLib\src/stm32f10x_flash.c ****   if ((FLASH->OBR & RDPRT_Mask) != (uint32_t)RESET)
 292              		.loc 1 1243 0
 293 0000 024B     		ldr	r3, .L29
 294 0002 D869     		ldr	r0, [r3, #28]
 295              	.LVL9:
1244:.\StdPeriphLib\src/stm32f10x_flash.c ****   {
1245:.\StdPeriphLib\src/stm32f10x_flash.c ****     readoutstatus = SET;
1246:.\StdPeriphLib\src/stm32f10x_flash.c ****   }
1247:.\StdPeriphLib\src/stm32f10x_flash.c ****   else
1248:.\StdPeriphLib\src/stm32f10x_flash.c ****   {
1249:.\StdPeriphLib\src/stm32f10x_flash.c ****     readoutstatus = RESET;
1250:.\StdPeriphLib\src/stm32f10x_flash.c ****   }
1251:.\StdPeriphLib\src/stm32f10x_flash.c ****   return readoutstatus;
1252:.\StdPeriphLib\src/stm32f10x_flash.c **** }
 296              		.loc 1 1252 0
 297 0004 C0F34000 		ubfx	r0, r0, #1, #1
 298              	.LVL10:
 299 0008 7047     		bx	lr
 300              	.L30:
 301 000a 00BF     		.align	2
 302              	.L29:
 303 000c 00200240 		.word	1073881088
 304              		.cfi_endproc
 305              	.LFE48:
 307              		.section	.text.FLASH_GetPrefetchBufferStatus,"ax",%progbits
 308              		.align	2
 309              		.global	FLASH_GetPrefetchBufferStatus
 310              		.thumb
 311              		.thumb_func
 313              	FLASH_GetPrefetchBufferStatus:
 314              	.LFB49:
1253:.\StdPeriphLib\src/stm32f10x_flash.c **** 
1254:.\StdPeriphLib\src/stm32f10x_flash.c **** /**
1255:.\StdPeriphLib\src/stm32f10x_flash.c ****   * @brief  Checks whether the FLASH Prefetch Buffer status is set or not.
1256:.\StdPeriphLib\src/stm32f10x_flash.c ****   * @note   This function can be used for all STM32F10x devices.
1257:.\StdPeriphLib\src/stm32f10x_flash.c ****   * @param  None
1258:.\StdPeriphLib\src/stm32f10x_flash.c ****   * @retval FLASH Prefetch Buffer Status (SET or RESET).
1259:.\StdPeriphLib\src/stm32f10x_flash.c ****   */
1260:.\StdPeriphLib\src/stm32f10x_flash.c **** FlagStatus FLASH_GetPrefetchBufferStatus(void)
1261:.\StdPeriphLib\src/stm32f10x_flash.c **** {
 315              		.loc 1 1261 0
 316              		.cfi_startproc
 317              		@ args = 0, pretend = 0, frame = 0
 318              		@ frame_needed = 0, uses_anonymous_args = 0
 319              		@ link register save eliminated.
 320              	.LVL11:
1262:.\StdPeriphLib\src/stm32f10x_flash.c ****   FlagStatus bitstatus = RESET;
1263:.\StdPeriphLib\src/stm32f10x_flash.c ****   
1264:.\StdPeriphLib\src/stm32f10x_flash.c ****   if ((FLASH->ACR & ACR_PRFTBS_Mask) != (uint32_t)RESET)
 321              		.loc 1 1264 0
 322 0000 024B     		ldr	r3, .L32
 323 0002 1868     		ldr	r0, [r3]
 324              	.LVL12:
1265:.\StdPeriphLib\src/stm32f10x_flash.c ****   {
1266:.\StdPeriphLib\src/stm32f10x_flash.c ****     bitstatus = SET;
1267:.\StdPeriphLib\src/stm32f10x_flash.c ****   }
1268:.\StdPeriphLib\src/stm32f10x_flash.c ****   else
1269:.\StdPeriphLib\src/stm32f10x_flash.c ****   {
1270:.\StdPeriphLib\src/stm32f10x_flash.c ****     bitstatus = RESET;
1271:.\StdPeriphLib\src/stm32f10x_flash.c ****   }
1272:.\StdPeriphLib\src/stm32f10x_flash.c ****   /* Return the new state of FLASH Prefetch Buffer Status (SET or RESET) */
1273:.\StdPeriphLib\src/stm32f10x_flash.c ****   return bitstatus; 
1274:.\StdPeriphLib\src/stm32f10x_flash.c **** }
 325              		.loc 1 1274 0
 326 0004 C0F34010 		ubfx	r0, r0, #5, #1
 327              	.LVL13:
 328 0008 7047     		bx	lr
 329              	.L33:
 330 000a 00BF     		.align	2
 331              	.L32:
 332 000c 00200240 		.word	1073881088
 333              		.cfi_endproc
 334              	.LFE49:
 336              		.section	.text.FLASH_ITConfig,"ax",%progbits
 337              		.align	2
 338              		.global	FLASH_ITConfig
 339              		.thumb
 340              		.thumb_func
 342              	FLASH_ITConfig:
 343              	.LFB50:
1275:.\StdPeriphLib\src/stm32f10x_flash.c **** 
1276:.\StdPeriphLib\src/stm32f10x_flash.c **** /**
1277:.\StdPeriphLib\src/stm32f10x_flash.c ****   * @brief  Enables or disables the specified FLASH interrupts.
1278:.\StdPeriphLib\src/stm32f10x_flash.c ****   * @note   This function can be used for all STM32F10x devices.
1279:.\StdPeriphLib\src/stm32f10x_flash.c ****   *         - For STM32F10X_XL devices, enables or disables the specified FLASH interrupts
1280:.\StdPeriphLib\src/stm32f10x_flash.c ****               for Bank1 and Bank2.
1281:.\StdPeriphLib\src/stm32f10x_flash.c ****   *         - For other devices it enables or disables the specified FLASH interrupts for Bank1.
1282:.\StdPeriphLib\src/stm32f10x_flash.c ****   * @param  FLASH_IT: specifies the FLASH interrupt sources to be enabled or disabled.
1283:.\StdPeriphLib\src/stm32f10x_flash.c ****   *   This parameter can be any combination of the following values:
1284:.\StdPeriphLib\src/stm32f10x_flash.c ****   *     @arg FLASH_IT_ERROR: FLASH Error Interrupt
1285:.\StdPeriphLib\src/stm32f10x_flash.c ****   *     @arg FLASH_IT_EOP: FLASH end of operation Interrupt
1286:.\StdPeriphLib\src/stm32f10x_flash.c ****   * @param  NewState: new state of the specified Flash interrupts.
1287:.\StdPeriphLib\src/stm32f10x_flash.c ****   *   This parameter can be: ENABLE or DISABLE.      
1288:.\StdPeriphLib\src/stm32f10x_flash.c ****   * @retval None 
1289:.\StdPeriphLib\src/stm32f10x_flash.c ****   */
1290:.\StdPeriphLib\src/stm32f10x_flash.c **** void FLASH_ITConfig(uint32_t FLASH_IT, FunctionalState NewState)
1291:.\StdPeriphLib\src/stm32f10x_flash.c **** {
 344              		.loc 1 1291 0
 345              		.cfi_startproc
 346              		@ args = 0, pretend = 0, frame = 0
 347              		@ frame_needed = 0, uses_anonymous_args = 0
 348              		@ link register save eliminated.
 349              	.LVL14:
1292:.\StdPeriphLib\src/stm32f10x_flash.c **** #ifdef STM32F10X_XL
1293:.\StdPeriphLib\src/stm32f10x_flash.c ****   /* Check the parameters */
1294:.\StdPeriphLib\src/stm32f10x_flash.c ****   assert_param(IS_FLASH_IT(FLASH_IT)); 
1295:.\StdPeriphLib\src/stm32f10x_flash.c ****   assert_param(IS_FUNCTIONAL_STATE(NewState));
1296:.\StdPeriphLib\src/stm32f10x_flash.c **** 
1297:.\StdPeriphLib\src/stm32f10x_flash.c ****   if((FLASH_IT & 0x80000000) != 0x0)
1298:.\StdPeriphLib\src/stm32f10x_flash.c ****   {
1299:.\StdPeriphLib\src/stm32f10x_flash.c ****     if(NewState != DISABLE)
1300:.\StdPeriphLib\src/stm32f10x_flash.c ****     {
1301:.\StdPeriphLib\src/stm32f10x_flash.c ****       /* Enable the interrupt sources */
1302:.\StdPeriphLib\src/stm32f10x_flash.c ****       FLASH->CR2 |= (FLASH_IT & 0x7FFFFFFF);
1303:.\StdPeriphLib\src/stm32f10x_flash.c ****     }
1304:.\StdPeriphLib\src/stm32f10x_flash.c ****     else
1305:.\StdPeriphLib\src/stm32f10x_flash.c ****     {
1306:.\StdPeriphLib\src/stm32f10x_flash.c ****       /* Disable the interrupt sources */
1307:.\StdPeriphLib\src/stm32f10x_flash.c ****       FLASH->CR2 &= ~(uint32_t)(FLASH_IT & 0x7FFFFFFF);
1308:.\StdPeriphLib\src/stm32f10x_flash.c ****     }
1309:.\StdPeriphLib\src/stm32f10x_flash.c ****   }
1310:.\StdPeriphLib\src/stm32f10x_flash.c ****   else
1311:.\StdPeriphLib\src/stm32f10x_flash.c ****   {
1312:.\StdPeriphLib\src/stm32f10x_flash.c ****     if(NewState != DISABLE)
1313:.\StdPeriphLib\src/stm32f10x_flash.c ****     {
1314:.\StdPeriphLib\src/stm32f10x_flash.c ****       /* Enable the interrupt sources */
1315:.\StdPeriphLib\src/stm32f10x_flash.c ****       FLASH->CR |= FLASH_IT;
1316:.\StdPeriphLib\src/stm32f10x_flash.c ****     }
1317:.\StdPeriphLib\src/stm32f10x_flash.c ****     else
1318:.\StdPeriphLib\src/stm32f10x_flash.c ****     {
1319:.\StdPeriphLib\src/stm32f10x_flash.c ****       /* Disable the interrupt sources */
1320:.\StdPeriphLib\src/stm32f10x_flash.c ****       FLASH->CR &= ~(uint32_t)FLASH_IT;
1321:.\StdPeriphLib\src/stm32f10x_flash.c ****     }
1322:.\StdPeriphLib\src/stm32f10x_flash.c ****   }
1323:.\StdPeriphLib\src/stm32f10x_flash.c **** #else
1324:.\StdPeriphLib\src/stm32f10x_flash.c ****   /* Check the parameters */
1325:.\StdPeriphLib\src/stm32f10x_flash.c ****   assert_param(IS_FLASH_IT(FLASH_IT)); 
1326:.\StdPeriphLib\src/stm32f10x_flash.c ****   assert_param(IS_FUNCTIONAL_STATE(NewState));
1327:.\StdPeriphLib\src/stm32f10x_flash.c **** 
1328:.\StdPeriphLib\src/stm32f10x_flash.c ****   if(NewState != DISABLE)
 350              		.loc 1 1328 0
 351 0000 21B1     		cbz	r1, .L35
1329:.\StdPeriphLib\src/stm32f10x_flash.c ****   {
1330:.\StdPeriphLib\src/stm32f10x_flash.c ****     /* Enable the interrupt sources */
1331:.\StdPeriphLib\src/stm32f10x_flash.c ****     FLASH->CR |= FLASH_IT;
 352              		.loc 1 1331 0
 353 0002 054A     		ldr	r2, .L37
 354 0004 1369     		ldr	r3, [r2, #16]
 355 0006 1843     		orrs	r0, r0, r3
 356              	.LVL15:
 357 0008 1061     		str	r0, [r2, #16]
 358 000a 7047     		bx	lr
 359              	.LVL16:
 360              	.L35:
1332:.\StdPeriphLib\src/stm32f10x_flash.c ****   }
1333:.\StdPeriphLib\src/stm32f10x_flash.c ****   else
1334:.\StdPeriphLib\src/stm32f10x_flash.c ****   {
1335:.\StdPeriphLib\src/stm32f10x_flash.c ****     /* Disable the interrupt sources */
1336:.\StdPeriphLib\src/stm32f10x_flash.c ****     FLASH->CR &= ~(uint32_t)FLASH_IT;
 361              		.loc 1 1336 0
 362 000c 024A     		ldr	r2, .L37
 363 000e 1369     		ldr	r3, [r2, #16]
 364 0010 23EA0000 		bic	r0, r3, r0
 365              	.LVL17:
 366 0014 1061     		str	r0, [r2, #16]
 367 0016 7047     		bx	lr
 368              	.L38:
 369              		.align	2
 370              	.L37:
 371 0018 00200240 		.word	1073881088
 372              		.cfi_endproc
 373              	.LFE50:
 375              		.section	.text.FLASH_GetFlagStatus,"ax",%progbits
 376              		.align	2
 377              		.global	FLASH_GetFlagStatus
 378              		.thumb
 379              		.thumb_func
 381              	FLASH_GetFlagStatus:
 382              	.LFB51:
1337:.\StdPeriphLib\src/stm32f10x_flash.c ****   }
1338:.\StdPeriphLib\src/stm32f10x_flash.c **** #endif /* STM32F10X_XL */
1339:.\StdPeriphLib\src/stm32f10x_flash.c **** }
1340:.\StdPeriphLib\src/stm32f10x_flash.c **** 
1341:.\StdPeriphLib\src/stm32f10x_flash.c **** /**
1342:.\StdPeriphLib\src/stm32f10x_flash.c ****   * @brief  Checks whether the specified FLASH flag is set or not.
1343:.\StdPeriphLib\src/stm32f10x_flash.c ****   * @note   This function can be used for all STM32F10x devices.
1344:.\StdPeriphLib\src/stm32f10x_flash.c ****   *         - For STM32F10X_XL devices, this function checks whether the specified 
1345:.\StdPeriphLib\src/stm32f10x_flash.c ****   *           Bank1 or Bank2 flag is set or not.
1346:.\StdPeriphLib\src/stm32f10x_flash.c ****   *         - For other devices, it checks whether the specified Bank1 flag is 
1347:.\StdPeriphLib\src/stm32f10x_flash.c ****   *           set or not.
1348:.\StdPeriphLib\src/stm32f10x_flash.c ****   * @param  FLASH_FLAG: specifies the FLASH flag to check.
1349:.\StdPeriphLib\src/stm32f10x_flash.c ****   *   This parameter can be one of the following values:
1350:.\StdPeriphLib\src/stm32f10x_flash.c ****   *     @arg FLASH_FLAG_BSY: FLASH Busy flag           
1351:.\StdPeriphLib\src/stm32f10x_flash.c ****   *     @arg FLASH_FLAG_PGERR: FLASH Program error flag       
1352:.\StdPeriphLib\src/stm32f10x_flash.c ****   *     @arg FLASH_FLAG_WRPRTERR: FLASH Write protected error flag      
1353:.\StdPeriphLib\src/stm32f10x_flash.c ****   *     @arg FLASH_FLAG_EOP: FLASH End of Operation flag           
1354:.\StdPeriphLib\src/stm32f10x_flash.c ****   *     @arg FLASH_FLAG_OPTERR:  FLASH Option Byte error flag     
1355:.\StdPeriphLib\src/stm32f10x_flash.c ****   * @retval The new state of FLASH_FLAG (SET or RESET).
1356:.\StdPeriphLib\src/stm32f10x_flash.c ****   */
1357:.\StdPeriphLib\src/stm32f10x_flash.c **** FlagStatus FLASH_GetFlagStatus(uint32_t FLASH_FLAG)
1358:.\StdPeriphLib\src/stm32f10x_flash.c **** {
 383              		.loc 1 1358 0
 384              		.cfi_startproc
 385              		@ args = 0, pretend = 0, frame = 0
 386              		@ frame_needed = 0, uses_anonymous_args = 0
 387              		@ link register save eliminated.
 388              	.LVL18:
1359:.\StdPeriphLib\src/stm32f10x_flash.c ****   FlagStatus bitstatus = RESET;
1360:.\StdPeriphLib\src/stm32f10x_flash.c **** 
1361:.\StdPeriphLib\src/stm32f10x_flash.c **** #ifdef STM32F10X_XL
1362:.\StdPeriphLib\src/stm32f10x_flash.c ****   /* Check the parameters */
1363:.\StdPeriphLib\src/stm32f10x_flash.c ****   assert_param(IS_FLASH_GET_FLAG(FLASH_FLAG)) ;
1364:.\StdPeriphLib\src/stm32f10x_flash.c ****   if(FLASH_FLAG == FLASH_FLAG_OPTERR) 
1365:.\StdPeriphLib\src/stm32f10x_flash.c ****   {
1366:.\StdPeriphLib\src/stm32f10x_flash.c ****     if((FLASH->OBR & FLASH_FLAG_OPTERR) != (uint32_t)RESET)
1367:.\StdPeriphLib\src/stm32f10x_flash.c ****     {
1368:.\StdPeriphLib\src/stm32f10x_flash.c ****       bitstatus = SET;
1369:.\StdPeriphLib\src/stm32f10x_flash.c ****     }
1370:.\StdPeriphLib\src/stm32f10x_flash.c ****     else
1371:.\StdPeriphLib\src/stm32f10x_flash.c ****     {
1372:.\StdPeriphLib\src/stm32f10x_flash.c ****       bitstatus = RESET;
1373:.\StdPeriphLib\src/stm32f10x_flash.c ****     }
1374:.\StdPeriphLib\src/stm32f10x_flash.c ****   }
1375:.\StdPeriphLib\src/stm32f10x_flash.c ****   else
1376:.\StdPeriphLib\src/stm32f10x_flash.c ****   {
1377:.\StdPeriphLib\src/stm32f10x_flash.c ****     if((FLASH_FLAG & 0x80000000) != 0x0)
1378:.\StdPeriphLib\src/stm32f10x_flash.c ****     {
1379:.\StdPeriphLib\src/stm32f10x_flash.c ****       if((FLASH->SR2 & FLASH_FLAG) != (uint32_t)RESET)
1380:.\StdPeriphLib\src/stm32f10x_flash.c ****       {
1381:.\StdPeriphLib\src/stm32f10x_flash.c ****         bitstatus = SET;
1382:.\StdPeriphLib\src/stm32f10x_flash.c ****       }
1383:.\StdPeriphLib\src/stm32f10x_flash.c ****       else
1384:.\StdPeriphLib\src/stm32f10x_flash.c ****       {
1385:.\StdPeriphLib\src/stm32f10x_flash.c ****         bitstatus = RESET;
1386:.\StdPeriphLib\src/stm32f10x_flash.c ****       }
1387:.\StdPeriphLib\src/stm32f10x_flash.c ****     }
1388:.\StdPeriphLib\src/stm32f10x_flash.c ****     else
1389:.\StdPeriphLib\src/stm32f10x_flash.c ****     {
1390:.\StdPeriphLib\src/stm32f10x_flash.c ****       if((FLASH->SR & FLASH_FLAG) != (uint32_t)RESET)
1391:.\StdPeriphLib\src/stm32f10x_flash.c ****       {
1392:.\StdPeriphLib\src/stm32f10x_flash.c ****         bitstatus = SET;
1393:.\StdPeriphLib\src/stm32f10x_flash.c ****       }
1394:.\StdPeriphLib\src/stm32f10x_flash.c ****       else
1395:.\StdPeriphLib\src/stm32f10x_flash.c ****       {
1396:.\StdPeriphLib\src/stm32f10x_flash.c ****         bitstatus = RESET;
1397:.\StdPeriphLib\src/stm32f10x_flash.c ****       }
1398:.\StdPeriphLib\src/stm32f10x_flash.c ****     }
1399:.\StdPeriphLib\src/stm32f10x_flash.c ****   }
1400:.\StdPeriphLib\src/stm32f10x_flash.c **** #else
1401:.\StdPeriphLib\src/stm32f10x_flash.c ****   /* Check the parameters */
1402:.\StdPeriphLib\src/stm32f10x_flash.c ****   assert_param(IS_FLASH_GET_FLAG(FLASH_FLAG)) ;
1403:.\StdPeriphLib\src/stm32f10x_flash.c ****   if(FLASH_FLAG == FLASH_FLAG_OPTERR) 
 389              		.loc 1 1403 0
 390 0000 0128     		cmp	r0, #1
 391 0002 04D1     		bne	.L40
1404:.\StdPeriphLib\src/stm32f10x_flash.c ****   {
1405:.\StdPeriphLib\src/stm32f10x_flash.c ****     if((FLASH->OBR & FLASH_FLAG_OPTERR) != (uint32_t)RESET)
 392              		.loc 1 1405 0
 393 0004 054B     		ldr	r3, .L42
 394 0006 D869     		ldr	r0, [r3, #28]
 395              	.LVL19:
1406:.\StdPeriphLib\src/stm32f10x_flash.c ****     {
1407:.\StdPeriphLib\src/stm32f10x_flash.c ****       bitstatus = SET;
1408:.\StdPeriphLib\src/stm32f10x_flash.c ****     }
1409:.\StdPeriphLib\src/stm32f10x_flash.c ****     else
1410:.\StdPeriphLib\src/stm32f10x_flash.c ****     {
1411:.\StdPeriphLib\src/stm32f10x_flash.c ****       bitstatus = RESET;
 396              		.loc 1 1411 0
 397 0008 00F00100 		and	r0, r0, #1
 398 000c 7047     		bx	lr
 399              	.LVL20:
 400              	.L40:
1412:.\StdPeriphLib\src/stm32f10x_flash.c ****     }
1413:.\StdPeriphLib\src/stm32f10x_flash.c ****   }
1414:.\StdPeriphLib\src/stm32f10x_flash.c ****   else
1415:.\StdPeriphLib\src/stm32f10x_flash.c ****   {
1416:.\StdPeriphLib\src/stm32f10x_flash.c ****    if((FLASH->SR & FLASH_FLAG) != (uint32_t)RESET)
 401              		.loc 1 1416 0
 402 000e 034B     		ldr	r3, .L42
 403 0010 DB68     		ldr	r3, [r3, #12]
 404 0012 1842     		tst	r0, r3
1411:.\StdPeriphLib\src/stm32f10x_flash.c ****     }
 405              		.loc 1 1411 0
 406 0014 14BF     		ite	ne
 407 0016 0120     		movne	r0, #1
 408              	.LVL21:
 409 0018 0020     		moveq	r0, #0
 410              	.LVL22:
1417:.\StdPeriphLib\src/stm32f10x_flash.c ****     {
1418:.\StdPeriphLib\src/stm32f10x_flash.c ****       bitstatus = SET;
1419:.\StdPeriphLib\src/stm32f10x_flash.c ****     }
1420:.\StdPeriphLib\src/stm32f10x_flash.c ****     else
1421:.\StdPeriphLib\src/stm32f10x_flash.c ****     {
1422:.\StdPeriphLib\src/stm32f10x_flash.c ****       bitstatus = RESET;
1423:.\StdPeriphLib\src/stm32f10x_flash.c ****     }
1424:.\StdPeriphLib\src/stm32f10x_flash.c ****   }
1425:.\StdPeriphLib\src/stm32f10x_flash.c **** #endif /* STM32F10X_XL */
1426:.\StdPeriphLib\src/stm32f10x_flash.c **** 
1427:.\StdPeriphLib\src/stm32f10x_flash.c ****   /* Return the new state of FLASH_FLAG (SET or RESET) */
1428:.\StdPeriphLib\src/stm32f10x_flash.c ****   return bitstatus;
1429:.\StdPeriphLib\src/stm32f10x_flash.c **** }
 411              		.loc 1 1429 0
 412 001a 7047     		bx	lr
 413              	.L43:
 414              		.align	2
 415              	.L42:
 416 001c 00200240 		.word	1073881088
 417              		.cfi_endproc
 418              	.LFE51:
 420              		.section	.text.FLASH_ClearFlag,"ax",%progbits
 421              		.align	2
 422              		.global	FLASH_ClearFlag
 423              		.thumb
 424              		.thumb_func
 426              	FLASH_ClearFlag:
 427              	.LFB52:
1430:.\StdPeriphLib\src/stm32f10x_flash.c **** 
1431:.\StdPeriphLib\src/stm32f10x_flash.c **** /**
1432:.\StdPeriphLib\src/stm32f10x_flash.c ****   * @brief  Clears the FLASH's pending flags.
1433:.\StdPeriphLib\src/stm32f10x_flash.c ****   * @note   This function can be used for all STM32F10x devices.
1434:.\StdPeriphLib\src/stm32f10x_flash.c ****   *         - For STM32F10X_XL devices, this function clears Bank1 or Bank2s pending flags
1435:.\StdPeriphLib\src/stm32f10x_flash.c ****   *         - For other devices, it clears Bank1s pending flags.
1436:.\StdPeriphLib\src/stm32f10x_flash.c ****   * @param  FLASH_FLAG: specifies the FLASH flags to clear.
1437:.\StdPeriphLib\src/stm32f10x_flash.c ****   *   This parameter can be any combination of the following values:         
1438:.\StdPeriphLib\src/stm32f10x_flash.c ****   *     @arg FLASH_FLAG_PGERR: FLASH Program error flag       
1439:.\StdPeriphLib\src/stm32f10x_flash.c ****   *     @arg FLASH_FLAG_WRPRTERR: FLASH Write protected error flag      
1440:.\StdPeriphLib\src/stm32f10x_flash.c ****   *     @arg FLASH_FLAG_EOP: FLASH End of Operation flag           
1441:.\StdPeriphLib\src/stm32f10x_flash.c ****   * @retval None
1442:.\StdPeriphLib\src/stm32f10x_flash.c ****   */
1443:.\StdPeriphLib\src/stm32f10x_flash.c **** void FLASH_ClearFlag(uint32_t FLASH_FLAG)
1444:.\StdPeriphLib\src/stm32f10x_flash.c **** {
 428              		.loc 1 1444 0
 429              		.cfi_startproc
 430              		@ args = 0, pretend = 0, frame = 0
 431              		@ frame_needed = 0, uses_anonymous_args = 0
 432              		@ link register save eliminated.
 433              	.LVL23:
1445:.\StdPeriphLib\src/stm32f10x_flash.c **** #ifdef STM32F10X_XL
1446:.\StdPeriphLib\src/stm32f10x_flash.c ****   /* Check the parameters */
1447:.\StdPeriphLib\src/stm32f10x_flash.c ****   assert_param(IS_FLASH_CLEAR_FLAG(FLASH_FLAG)) ;
1448:.\StdPeriphLib\src/stm32f10x_flash.c **** 
1449:.\StdPeriphLib\src/stm32f10x_flash.c ****   if((FLASH_FLAG & 0x80000000) != 0x0)
1450:.\StdPeriphLib\src/stm32f10x_flash.c ****   {
1451:.\StdPeriphLib\src/stm32f10x_flash.c ****     /* Clear the flags */
1452:.\StdPeriphLib\src/stm32f10x_flash.c ****     FLASH->SR2 = FLASH_FLAG;
1453:.\StdPeriphLib\src/stm32f10x_flash.c ****   }
1454:.\StdPeriphLib\src/stm32f10x_flash.c ****   else
1455:.\StdPeriphLib\src/stm32f10x_flash.c ****   {
1456:.\StdPeriphLib\src/stm32f10x_flash.c ****     /* Clear the flags */
1457:.\StdPeriphLib\src/stm32f10x_flash.c ****     FLASH->SR = FLASH_FLAG;
1458:.\StdPeriphLib\src/stm32f10x_flash.c ****   }  
1459:.\StdPeriphLib\src/stm32f10x_flash.c **** 
1460:.\StdPeriphLib\src/stm32f10x_flash.c **** #else
1461:.\StdPeriphLib\src/stm32f10x_flash.c ****   /* Check the parameters */
1462:.\StdPeriphLib\src/stm32f10x_flash.c ****   assert_param(IS_FLASH_CLEAR_FLAG(FLASH_FLAG)) ;
1463:.\StdPeriphLib\src/stm32f10x_flash.c ****   
1464:.\StdPeriphLib\src/stm32f10x_flash.c ****   /* Clear the flags */
1465:.\StdPeriphLib\src/stm32f10x_flash.c ****   FLASH->SR = FLASH_FLAG;
 434              		.loc 1 1465 0
 435 0000 014B     		ldr	r3, .L45
 436 0002 D860     		str	r0, [r3, #12]
 437 0004 7047     		bx	lr
 438              	.L46:
 439 0006 00BF     		.align	2
 440              	.L45:
 441 0008 00200240 		.word	1073881088
 442              		.cfi_endproc
 443              	.LFE52:
 445              		.section	.text.FLASH_GetStatus,"ax",%progbits
 446              		.align	2
 447              		.global	FLASH_GetStatus
 448              		.thumb
 449              		.thumb_func
 451              	FLASH_GetStatus:
 452              	.LFB53:
1466:.\StdPeriphLib\src/stm32f10x_flash.c **** #endif /* STM32F10X_XL */
1467:.\StdPeriphLib\src/stm32f10x_flash.c **** }
1468:.\StdPeriphLib\src/stm32f10x_flash.c **** 
1469:.\StdPeriphLib\src/stm32f10x_flash.c **** /**
1470:.\StdPeriphLib\src/stm32f10x_flash.c ****   * @brief  Returns the FLASH Status.
1471:.\StdPeriphLib\src/stm32f10x_flash.c ****   * @note   This function can be used for all STM32F10x devices, it is equivalent
1472:.\StdPeriphLib\src/stm32f10x_flash.c ****   *         to FLASH_GetBank1Status function.
1473:.\StdPeriphLib\src/stm32f10x_flash.c ****   * @param  None
1474:.\StdPeriphLib\src/stm32f10x_flash.c ****   * @retval FLASH Status: The returned value can be: FLASH_BUSY, FLASH_ERROR_PG,
1475:.\StdPeriphLib\src/stm32f10x_flash.c ****   *         FLASH_ERROR_WRP or FLASH_COMPLETE
1476:.\StdPeriphLib\src/stm32f10x_flash.c ****   */
1477:.\StdPeriphLib\src/stm32f10x_flash.c **** FLASH_Status FLASH_GetStatus(void)
1478:.\StdPeriphLib\src/stm32f10x_flash.c **** {
 453              		.loc 1 1478 0
 454              		.cfi_startproc
 455              		@ args = 0, pretend = 0, frame = 0
 456              		@ frame_needed = 0, uses_anonymous_args = 0
 457              		@ link register save eliminated.
 458              	.LVL24:
1479:.\StdPeriphLib\src/stm32f10x_flash.c ****   FLASH_Status flashstatus = FLASH_COMPLETE;
1480:.\StdPeriphLib\src/stm32f10x_flash.c ****   
1481:.\StdPeriphLib\src/stm32f10x_flash.c ****   if((FLASH->SR & FLASH_FLAG_BSY) == FLASH_FLAG_BSY) 
 459              		.loc 1 1481 0
 460 0000 0B4B     		ldr	r3, .L52
 461 0002 DB68     		ldr	r3, [r3, #12]
 462 0004 13F0010F 		tst	r3, #1
 463 0008 0DD1     		bne	.L49
1482:.\StdPeriphLib\src/stm32f10x_flash.c ****   {
1483:.\StdPeriphLib\src/stm32f10x_flash.c ****     flashstatus = FLASH_BUSY;
1484:.\StdPeriphLib\src/stm32f10x_flash.c ****   }
1485:.\StdPeriphLib\src/stm32f10x_flash.c ****   else 
1486:.\StdPeriphLib\src/stm32f10x_flash.c ****   {  
1487:.\StdPeriphLib\src/stm32f10x_flash.c ****     if((FLASH->SR & FLASH_FLAG_PGERR) != 0)
 464              		.loc 1 1487 0
 465 000a 094B     		ldr	r3, .L52
 466 000c DB68     		ldr	r3, [r3, #12]
 467 000e 13F0040F 		tst	r3, #4
 468 0012 0AD1     		bne	.L50
1488:.\StdPeriphLib\src/stm32f10x_flash.c ****     { 
1489:.\StdPeriphLib\src/stm32f10x_flash.c ****       flashstatus = FLASH_ERROR_PG;
1490:.\StdPeriphLib\src/stm32f10x_flash.c ****     }
1491:.\StdPeriphLib\src/stm32f10x_flash.c ****     else 
1492:.\StdPeriphLib\src/stm32f10x_flash.c ****     {
1493:.\StdPeriphLib\src/stm32f10x_flash.c ****       if((FLASH->SR & FLASH_FLAG_WRPRTERR) != 0 )
 469              		.loc 1 1493 0
 470 0014 064B     		ldr	r3, .L52
 471 0016 DB68     		ldr	r3, [r3, #12]
 472 0018 03F01003 		and	r3, r3, #16
1494:.\StdPeriphLib\src/stm32f10x_flash.c ****       {
1495:.\StdPeriphLib\src/stm32f10x_flash.c ****         flashstatus = FLASH_ERROR_WRP;
1496:.\StdPeriphLib\src/stm32f10x_flash.c ****       }
1497:.\StdPeriphLib\src/stm32f10x_flash.c ****       else
1498:.\StdPeriphLib\src/stm32f10x_flash.c ****       {
1499:.\StdPeriphLib\src/stm32f10x_flash.c ****         flashstatus = FLASH_COMPLETE;
 473              		.loc 1 1499 0
 474 001c 002B     		cmp	r3, #0
 475 001e 14BF     		ite	ne
 476 0020 0320     		movne	r0, #3
 477 0022 0420     		moveq	r0, #4
 478 0024 7047     		bx	lr
 479              	.L49:
1483:.\StdPeriphLib\src/stm32f10x_flash.c ****   }
 480              		.loc 1 1483 0
 481 0026 0120     		movs	r0, #1
 482 0028 7047     		bx	lr
 483              	.L50:
1489:.\StdPeriphLib\src/stm32f10x_flash.c ****     }
 484              		.loc 1 1489 0
 485 002a 0220     		movs	r0, #2
 486              	.LVL25:
1500:.\StdPeriphLib\src/stm32f10x_flash.c ****       }
1501:.\StdPeriphLib\src/stm32f10x_flash.c ****     }
1502:.\StdPeriphLib\src/stm32f10x_flash.c ****   }
1503:.\StdPeriphLib\src/stm32f10x_flash.c ****   /* Return the Flash Status */
1504:.\StdPeriphLib\src/stm32f10x_flash.c ****   return flashstatus;
1505:.\StdPeriphLib\src/stm32f10x_flash.c **** }
 487              		.loc 1 1505 0
 488 002c 7047     		bx	lr
 489              	.L53:
 490 002e 00BF     		.align	2
 491              	.L52:
 492 0030 00200240 		.word	1073881088
 493              		.cfi_endproc
 494              	.LFE53:
 496              		.section	.text.FLASH_GetBank1Status,"ax",%progbits
 497              		.align	2
 498              		.global	FLASH_GetBank1Status
 499              		.thumb
 500              		.thumb_func
 502              	FLASH_GetBank1Status:
 503              	.LFB54:
1506:.\StdPeriphLib\src/stm32f10x_flash.c **** 
1507:.\StdPeriphLib\src/stm32f10x_flash.c **** /**
1508:.\StdPeriphLib\src/stm32f10x_flash.c ****   * @brief  Returns the FLASH Bank1 Status.
1509:.\StdPeriphLib\src/stm32f10x_flash.c ****   * @note   This function can be used for all STM32F10x devices, it is equivalent
1510:.\StdPeriphLib\src/stm32f10x_flash.c ****   *         to FLASH_GetStatus function.
1511:.\StdPeriphLib\src/stm32f10x_flash.c ****   * @param  None
1512:.\StdPeriphLib\src/stm32f10x_flash.c ****   * @retval FLASH Status: The returned value can be: FLASH_BUSY, FLASH_ERROR_PG,
1513:.\StdPeriphLib\src/stm32f10x_flash.c ****   *         FLASH_ERROR_WRP or FLASH_COMPLETE
1514:.\StdPeriphLib\src/stm32f10x_flash.c ****   */
1515:.\StdPeriphLib\src/stm32f10x_flash.c **** FLASH_Status FLASH_GetBank1Status(void)
1516:.\StdPeriphLib\src/stm32f10x_flash.c **** {
 504              		.loc 1 1516 0
 505              		.cfi_startproc
 506              		@ args = 0, pretend = 0, frame = 0
 507              		@ frame_needed = 0, uses_anonymous_args = 0
 508              		@ link register save eliminated.
 509              	.LVL26:
1517:.\StdPeriphLib\src/stm32f10x_flash.c ****   FLASH_Status flashstatus = FLASH_COMPLETE;
1518:.\StdPeriphLib\src/stm32f10x_flash.c ****   
1519:.\StdPeriphLib\src/stm32f10x_flash.c ****   if((FLASH->SR & FLASH_FLAG_BANK1_BSY) == FLASH_FLAG_BSY) 
 510              		.loc 1 1519 0
 511 0000 0B4B     		ldr	r3, .L59
 512 0002 DB68     		ldr	r3, [r3, #12]
 513 0004 13F0010F 		tst	r3, #1
 514 0008 0DD1     		bne	.L56
1520:.\StdPeriphLib\src/stm32f10x_flash.c ****   {
1521:.\StdPeriphLib\src/stm32f10x_flash.c ****     flashstatus = FLASH_BUSY;
1522:.\StdPeriphLib\src/stm32f10x_flash.c ****   }
1523:.\StdPeriphLib\src/stm32f10x_flash.c ****   else 
1524:.\StdPeriphLib\src/stm32f10x_flash.c ****   {  
1525:.\StdPeriphLib\src/stm32f10x_flash.c ****     if((FLASH->SR & FLASH_FLAG_BANK1_PGERR) != 0)
 515              		.loc 1 1525 0
 516 000a 094B     		ldr	r3, .L59
 517 000c DB68     		ldr	r3, [r3, #12]
 518 000e 13F0040F 		tst	r3, #4
 519 0012 0AD1     		bne	.L57
1526:.\StdPeriphLib\src/stm32f10x_flash.c ****     { 
1527:.\StdPeriphLib\src/stm32f10x_flash.c ****       flashstatus = FLASH_ERROR_PG;
1528:.\StdPeriphLib\src/stm32f10x_flash.c ****     }
1529:.\StdPeriphLib\src/stm32f10x_flash.c ****     else 
1530:.\StdPeriphLib\src/stm32f10x_flash.c ****     {
1531:.\StdPeriphLib\src/stm32f10x_flash.c ****       if((FLASH->SR & FLASH_FLAG_BANK1_WRPRTERR) != 0 )
 520              		.loc 1 1531 0
 521 0014 064B     		ldr	r3, .L59
 522 0016 DB68     		ldr	r3, [r3, #12]
 523 0018 03F01003 		and	r3, r3, #16
1532:.\StdPeriphLib\src/stm32f10x_flash.c ****       {
1533:.\StdPeriphLib\src/stm32f10x_flash.c ****         flashstatus = FLASH_ERROR_WRP;
1534:.\StdPeriphLib\src/stm32f10x_flash.c ****       }
1535:.\StdPeriphLib\src/stm32f10x_flash.c ****       else
1536:.\StdPeriphLib\src/stm32f10x_flash.c ****       {
1537:.\StdPeriphLib\src/stm32f10x_flash.c ****         flashstatus = FLASH_COMPLETE;
 524              		.loc 1 1537 0
 525 001c 002B     		cmp	r3, #0
 526 001e 14BF     		ite	ne
 527 0020 0320     		movne	r0, #3
 528 0022 0420     		moveq	r0, #4
 529 0024 7047     		bx	lr
 530              	.L56:
1521:.\StdPeriphLib\src/stm32f10x_flash.c ****   }
 531              		.loc 1 1521 0
 532 0026 0120     		movs	r0, #1
 533 0028 7047     		bx	lr
 534              	.L57:
1527:.\StdPeriphLib\src/stm32f10x_flash.c ****     }
 535              		.loc 1 1527 0
 536 002a 0220     		movs	r0, #2
 537              	.LVL27:
1538:.\StdPeriphLib\src/stm32f10x_flash.c ****       }
1539:.\StdPeriphLib\src/stm32f10x_flash.c ****     }
1540:.\StdPeriphLib\src/stm32f10x_flash.c ****   }
1541:.\StdPeriphLib\src/stm32f10x_flash.c ****   /* Return the Flash Status */
1542:.\StdPeriphLib\src/stm32f10x_flash.c ****   return flashstatus;
1543:.\StdPeriphLib\src/stm32f10x_flash.c **** }
 538              		.loc 1 1543 0
 539 002c 7047     		bx	lr
 540              	.L60:
 541 002e 00BF     		.align	2
 542              	.L59:
 543 0030 00200240 		.word	1073881088
 544              		.cfi_endproc
 545              	.LFE54:
 547              		.section	.text.FLASH_WaitForLastOperation,"ax",%progbits
 548              		.align	2
 549              		.global	FLASH_WaitForLastOperation
 550              		.thumb
 551              		.thumb_func
 553              	FLASH_WaitForLastOperation:
 554              	.LFB55:
1544:.\StdPeriphLib\src/stm32f10x_flash.c **** 
1545:.\StdPeriphLib\src/stm32f10x_flash.c **** #ifdef STM32F10X_XL
1546:.\StdPeriphLib\src/stm32f10x_flash.c **** /**
1547:.\StdPeriphLib\src/stm32f10x_flash.c ****   * @brief  Returns the FLASH Bank2 Status.
1548:.\StdPeriphLib\src/stm32f10x_flash.c ****   * @note   This function can be used for STM32F10x_XL density devices.
1549:.\StdPeriphLib\src/stm32f10x_flash.c ****   * @param  None
1550:.\StdPeriphLib\src/stm32f10x_flash.c ****   * @retval FLASH Status: The returned value can be: FLASH_BUSY, FLASH_ERROR_PG,
1551:.\StdPeriphLib\src/stm32f10x_flash.c ****   *        FLASH_ERROR_WRP or FLASH_COMPLETE
1552:.\StdPeriphLib\src/stm32f10x_flash.c ****   */
1553:.\StdPeriphLib\src/stm32f10x_flash.c **** FLASH_Status FLASH_GetBank2Status(void)
1554:.\StdPeriphLib\src/stm32f10x_flash.c **** {
1555:.\StdPeriphLib\src/stm32f10x_flash.c ****   FLASH_Status flashstatus = FLASH_COMPLETE;
1556:.\StdPeriphLib\src/stm32f10x_flash.c ****   
1557:.\StdPeriphLib\src/stm32f10x_flash.c ****   if((FLASH->SR2 & (FLASH_FLAG_BANK2_BSY & 0x7FFFFFFF)) == (FLASH_FLAG_BANK2_BSY & 0x7FFFFFFF)) 
1558:.\StdPeriphLib\src/stm32f10x_flash.c ****   {
1559:.\StdPeriphLib\src/stm32f10x_flash.c ****     flashstatus = FLASH_BUSY;
1560:.\StdPeriphLib\src/stm32f10x_flash.c ****   }
1561:.\StdPeriphLib\src/stm32f10x_flash.c ****   else 
1562:.\StdPeriphLib\src/stm32f10x_flash.c ****   {  
1563:.\StdPeriphLib\src/stm32f10x_flash.c ****     if((FLASH->SR2 & (FLASH_FLAG_BANK2_PGERR & 0x7FFFFFFF)) != 0)
1564:.\StdPeriphLib\src/stm32f10x_flash.c ****     { 
1565:.\StdPeriphLib\src/stm32f10x_flash.c ****       flashstatus = FLASH_ERROR_PG;
1566:.\StdPeriphLib\src/stm32f10x_flash.c ****     }
1567:.\StdPeriphLib\src/stm32f10x_flash.c ****     else 
1568:.\StdPeriphLib\src/stm32f10x_flash.c ****     {
1569:.\StdPeriphLib\src/stm32f10x_flash.c ****       if((FLASH->SR2 & (FLASH_FLAG_BANK2_WRPRTERR & 0x7FFFFFFF)) != 0 )
1570:.\StdPeriphLib\src/stm32f10x_flash.c ****       {
1571:.\StdPeriphLib\src/stm32f10x_flash.c ****         flashstatus = FLASH_ERROR_WRP;
1572:.\StdPeriphLib\src/stm32f10x_flash.c ****       }
1573:.\StdPeriphLib\src/stm32f10x_flash.c ****       else
1574:.\StdPeriphLib\src/stm32f10x_flash.c ****       {
1575:.\StdPeriphLib\src/stm32f10x_flash.c ****         flashstatus = FLASH_COMPLETE;
1576:.\StdPeriphLib\src/stm32f10x_flash.c ****       }
1577:.\StdPeriphLib\src/stm32f10x_flash.c ****     }
1578:.\StdPeriphLib\src/stm32f10x_flash.c ****   }
1579:.\StdPeriphLib\src/stm32f10x_flash.c ****   /* Return the Flash Status */
1580:.\StdPeriphLib\src/stm32f10x_flash.c ****   return flashstatus;
1581:.\StdPeriphLib\src/stm32f10x_flash.c **** }
1582:.\StdPeriphLib\src/stm32f10x_flash.c **** #endif /* STM32F10X_XL */
1583:.\StdPeriphLib\src/stm32f10x_flash.c **** /**
1584:.\StdPeriphLib\src/stm32f10x_flash.c ****   * @brief  Waits for a Flash operation to complete or a TIMEOUT to occur.
1585:.\StdPeriphLib\src/stm32f10x_flash.c ****   * @note   This function can be used for all STM32F10x devices, 
1586:.\StdPeriphLib\src/stm32f10x_flash.c ****   *         it is equivalent to FLASH_WaitForLastBank1Operation.
1587:.\StdPeriphLib\src/stm32f10x_flash.c ****   *         - For STM32F10X_XL devices this function waits for a Bank1 Flash operation
1588:.\StdPeriphLib\src/stm32f10x_flash.c ****   *           to complete or a TIMEOUT to occur.
1589:.\StdPeriphLib\src/stm32f10x_flash.c ****   *         - For all other devices it waits for a Flash operation to complete 
1590:.\StdPeriphLib\src/stm32f10x_flash.c ****   *           or a TIMEOUT to occur.
1591:.\StdPeriphLib\src/stm32f10x_flash.c ****   * @param  Timeout: FLASH programming Timeout
1592:.\StdPeriphLib\src/stm32f10x_flash.c ****   * @retval FLASH Status: The returned value can be: FLASH_ERROR_PG,
1593:.\StdPeriphLib\src/stm32f10x_flash.c ****   *         FLASH_ERROR_WRP, FLASH_COMPLETE or FLASH_TIMEOUT.
1594:.\StdPeriphLib\src/stm32f10x_flash.c ****   */
1595:.\StdPeriphLib\src/stm32f10x_flash.c **** FLASH_Status FLASH_WaitForLastOperation(uint32_t Timeout)
1596:.\StdPeriphLib\src/stm32f10x_flash.c **** { 
 555              		.loc 1 1596 0
 556              		.cfi_startproc
 557              		@ args = 0, pretend = 0, frame = 0
 558              		@ frame_needed = 0, uses_anonymous_args = 0
 559              	.LVL28:
 560 0000 10B5     		push	{r4, lr}
 561              	.LCFI0:
 562              		.cfi_def_cfa_offset 8
 563              		.cfi_offset 4, -8
 564              		.cfi_offset 14, -4
 565 0002 0446     		mov	r4, r0
 566              	.LVL29:
1597:.\StdPeriphLib\src/stm32f10x_flash.c ****   FLASH_Status status = FLASH_COMPLETE;
1598:.\StdPeriphLib\src/stm32f10x_flash.c ****    
1599:.\StdPeriphLib\src/stm32f10x_flash.c ****   /* Check for the Flash Status */
1600:.\StdPeriphLib\src/stm32f10x_flash.c ****   status = FLASH_GetBank1Status();
 567              		.loc 1 1600 0
 568 0004 FFF7FEFF 		bl	FLASH_GetBank1Status
 569              	.LVL30:
1601:.\StdPeriphLib\src/stm32f10x_flash.c ****   /* Wait for a Flash operation to complete or a TIMEOUT to occur */
1602:.\StdPeriphLib\src/stm32f10x_flash.c ****   while((status == FLASH_BUSY) && (Timeout != 0x00))
 570              		.loc 1 1602 0
 571 0008 0128     		cmp	r0, #1
 572 000a 08D1     		bne	.L62
 573 000c 5CB1     		cbz	r4, .L63
 574              	.L67:
 575              	.LVL31:
1603:.\StdPeriphLib\src/stm32f10x_flash.c ****   {
1604:.\StdPeriphLib\src/stm32f10x_flash.c ****     status = FLASH_GetBank1Status();
 576              		.loc 1 1604 0
 577 000e FFF7FEFF 		bl	FLASH_GetBank1Status
 578              	.LVL32:
1605:.\StdPeriphLib\src/stm32f10x_flash.c ****     Timeout--;
 579              		.loc 1 1605 0
 580 0012 013C     		subs	r4, r4, #1
 581              	.LVL33:
1602:.\StdPeriphLib\src/stm32f10x_flash.c ****   {
 582              		.loc 1 1602 0
 583 0014 0128     		cmp	r0, #1
 584 0016 02D1     		bne	.L62
1602:.\StdPeriphLib\src/stm32f10x_flash.c ****   {
 585              		.loc 1 1602 0 is_stmt 0 discriminator 1
 586 0018 002C     		cmp	r4, #0
 587 001a F8D1     		bne	.L67
 588 001c 03E0     		b	.L63
 589              	.L62:
1606:.\StdPeriphLib\src/stm32f10x_flash.c ****   }
1607:.\StdPeriphLib\src/stm32f10x_flash.c ****   if(Timeout == 0x00 )
1608:.\StdPeriphLib\src/stm32f10x_flash.c ****   {
1609:.\StdPeriphLib\src/stm32f10x_flash.c ****     status = FLASH_TIMEOUT;
 590              		.loc 1 1609 0 is_stmt 1
 591 001e 002C     		cmp	r4, #0
 592 0020 08BF     		it	eq
 593 0022 0520     		moveq	r0, #5
 594              	.LVL34:
 595 0024 10BD     		pop	{r4, pc}
 596              	.LVL35:
 597              	.L63:
 598 0026 0520     		movs	r0, #5
 599              	.LVL36:
1610:.\StdPeriphLib\src/stm32f10x_flash.c ****   }
1611:.\StdPeriphLib\src/stm32f10x_flash.c ****   /* Return the operation status */
1612:.\StdPeriphLib\src/stm32f10x_flash.c ****   return status;
1613:.\StdPeriphLib\src/stm32f10x_flash.c **** }
 600              		.loc 1 1613 0
 601 0028 10BD     		pop	{r4, pc}
 602              		.cfi_endproc
 603              	.LFE55:
 605 002a 00BF     		.section	.text.FLASH_ErasePage,"ax",%progbits
 606              		.align	2
 607              		.global	FLASH_ErasePage
 608              		.thumb
 609              		.thumb_func
 611              	FLASH_ErasePage:
 612              	.LFB36:
 420:.\StdPeriphLib\src/stm32f10x_flash.c ****   FLASH_Status status = FLASH_COMPLETE;
 613              		.loc 1 420 0
 614              		.cfi_startproc
 615              		@ args = 0, pretend = 0, frame = 0
 616              		@ frame_needed = 0, uses_anonymous_args = 0
 617              	.LVL37:
 618 0000 38B5     		push	{r3, r4, r5, lr}
 619              	.LCFI1:
 620              		.cfi_def_cfa_offset 16
 621              		.cfi_offset 3, -16
 622              		.cfi_offset 4, -12
 623              		.cfi_offset 5, -8
 624              		.cfi_offset 14, -4
 625 0002 0546     		mov	r5, r0
 626              	.LVL38:
 464:.\StdPeriphLib\src/stm32f10x_flash.c ****   
 627              		.loc 1 464 0
 628 0004 4FF43020 		mov	r0, #720896
 629              	.LVL39:
 630 0008 FFF7FEFF 		bl	FLASH_WaitForLastOperation
 631              	.LVL40:
 466:.\StdPeriphLib\src/stm32f10x_flash.c ****   { 
 632              		.loc 1 466 0
 633 000c 0428     		cmp	r0, #4
 634 000e 13D1     		bne	.L71
 469:.\StdPeriphLib\src/stm32f10x_flash.c ****     FLASH->AR = Page_Address; 
 635              		.loc 1 469 0
 636 0010 0A4C     		ldr	r4, .L73
 637 0012 2369     		ldr	r3, [r4, #16]
 638 0014 43F00203 		orr	r3, r3, #2
 639 0018 2361     		str	r3, [r4, #16]
 470:.\StdPeriphLib\src/stm32f10x_flash.c ****     FLASH->CR|= CR_STRT_Set;
 640              		.loc 1 470 0
 641 001a 6561     		str	r5, [r4, #20]
 471:.\StdPeriphLib\src/stm32f10x_flash.c ****     
 642              		.loc 1 471 0
 643 001c 2369     		ldr	r3, [r4, #16]
 644 001e 43F04003 		orr	r3, r3, #64
 645 0022 2361     		str	r3, [r4, #16]
 474:.\StdPeriphLib\src/stm32f10x_flash.c ****     
 646              		.loc 1 474 0
 647 0024 4FF43020 		mov	r0, #720896
 648              	.LVL41:
 649 0028 FFF7FEFF 		bl	FLASH_WaitForLastOperation
 650              	.LVL42:
 477:.\StdPeriphLib\src/stm32f10x_flash.c ****   }
 651              		.loc 1 477 0
 652 002c 2369     		ldr	r3, [r4, #16]
 653 002e 23F00203 		bic	r3, r3, #2
 654 0032 DB04     		lsls	r3, r3, #19
 655 0034 DB0C     		lsrs	r3, r3, #19
 656 0036 2361     		str	r3, [r4, #16]
 657              	.L71:
 483:.\StdPeriphLib\src/stm32f10x_flash.c **** 
 658              		.loc 1 483 0
 659 0038 38BD     		pop	{r3, r4, r5, pc}
 660              	.LVL43:
 661              	.L74:
 662 003a 00BF     		.align	2
 663              	.L73:
 664 003c 00200240 		.word	1073881088
 665              		.cfi_endproc
 666              	.LFE36:
 668              		.section	.text.FLASH_EraseAllPages,"ax",%progbits
 669              		.align	2
 670              		.global	FLASH_EraseAllPages
 671              		.thumb
 672              		.thumb_func
 674              	FLASH_EraseAllPages:
 675              	.LFB37:
 493:.\StdPeriphLib\src/stm32f10x_flash.c ****   FLASH_Status status = FLASH_COMPLETE;
 676              		.loc 1 493 0
 677              		.cfi_startproc
 678              		@ args = 0, pretend = 0, frame = 0
 679              		@ frame_needed = 0, uses_anonymous_args = 0
 680 0000 10B5     		push	{r4, lr}
 681              	.LCFI2:
 682              		.cfi_def_cfa_offset 8
 683              		.cfi_offset 4, -8
 684              		.cfi_offset 14, -4
 685              	.LVL44:
 526:.\StdPeriphLib\src/stm32f10x_flash.c ****   if(status == FLASH_COMPLETE)
 686              		.loc 1 526 0
 687 0002 4FF43020 		mov	r0, #720896
 688 0006 FFF7FEFF 		bl	FLASH_WaitForLastOperation
 689              	.LVL45:
 527:.\StdPeriphLib\src/stm32f10x_flash.c ****   {
 690              		.loc 1 527 0
 691 000a 0428     		cmp	r0, #4
 692 000c 12D1     		bne	.L76
 530:.\StdPeriphLib\src/stm32f10x_flash.c ****      FLASH->CR |= CR_STRT_Set;
 693              		.loc 1 530 0
 694 000e 0A4C     		ldr	r4, .L78
 695 0010 2369     		ldr	r3, [r4, #16]
 696 0012 43F00403 		orr	r3, r3, #4
 697 0016 2361     		str	r3, [r4, #16]
 531:.\StdPeriphLib\src/stm32f10x_flash.c ****     
 698              		.loc 1 531 0
 699 0018 2369     		ldr	r3, [r4, #16]
 700 001a 43F04003 		orr	r3, r3, #64
 701 001e 2361     		str	r3, [r4, #16]
 534:.\StdPeriphLib\src/stm32f10x_flash.c **** 
 702              		.loc 1 534 0
 703 0020 4FF43020 		mov	r0, #720896
 704              	.LVL46:
 705 0024 FFF7FEFF 		bl	FLASH_WaitForLastOperation
 706              	.LVL47:
 537:.\StdPeriphLib\src/stm32f10x_flash.c ****   }
 707              		.loc 1 537 0
 708 0028 2369     		ldr	r3, [r4, #16]
 709 002a 23F00403 		bic	r3, r3, #4
 710 002e DB04     		lsls	r3, r3, #19
 711 0030 DB0C     		lsrs	r3, r3, #19
 712 0032 2361     		str	r3, [r4, #16]
 713              	.L76:
 543:.\StdPeriphLib\src/stm32f10x_flash.c **** 
 714              		.loc 1 543 0
 715 0034 10BD     		pop	{r4, pc}
 716              	.L79:
 717 0036 00BF     		.align	2
 718              	.L78:
 719 0038 00200240 		.word	1073881088
 720              		.cfi_endproc
 721              	.LFE37:
 723              		.section	.text.FLASH_EraseOptionBytes,"ax",%progbits
 724              		.align	2
 725              		.global	FLASH_EraseOptionBytes
 726              		.thumb
 727              		.thumb_func
 729              	FLASH_EraseOptionBytes:
 730              	.LFB39:
 617:.\StdPeriphLib\src/stm32f10x_flash.c ****   uint16_t rdptmp = RDP_Key;
 731              		.loc 1 617 0
 732              		.cfi_startproc
 733              		@ args = 0, pretend = 0, frame = 0
 734              		@ frame_needed = 0, uses_anonymous_args = 0
 735 0000 10B5     		push	{r4, lr}
 736              	.LCFI3:
 737              		.cfi_def_cfa_offset 8
 738              		.cfi_offset 4, -8
 739              		.cfi_offset 14, -4
 740              	.LVL48:
 623:.\StdPeriphLib\src/stm32f10x_flash.c ****   {
 741              		.loc 1 623 0
 742 0002 FFF7FEFF 		bl	FLASH_GetReadOutProtectionStatus
 743              	.LVL49:
 744 0006 0028     		cmp	r0, #0
 625:.\StdPeriphLib\src/stm32f10x_flash.c ****   }
 745              		.loc 1 625 0
 746 0008 0CBF     		ite	eq
 747 000a A524     		moveq	r4, #165
 748 000c 0024     		movne	r4, #0
 749              	.LVL50:
 629:.\StdPeriphLib\src/stm32f10x_flash.c ****   if(status == FLASH_COMPLETE)
 750              		.loc 1 629 0
 751 000e 4FF43020 		mov	r0, #720896
 752 0012 FFF7FEFF 		bl	FLASH_WaitForLastOperation
 753              	.LVL51:
 630:.\StdPeriphLib\src/stm32f10x_flash.c ****   {
 754              		.loc 1 630 0
 755 0016 0428     		cmp	r0, #4
 756 0018 37D1     		bne	.L82
 633:.\StdPeriphLib\src/stm32f10x_flash.c ****     FLASH->OPTKEYR = FLASH_KEY2;
 757              		.loc 1 633 0
 758 001a 1C4B     		ldr	r3, .L86
 759 001c 1C4A     		ldr	r2, .L86+4
 760 001e 9A60     		str	r2, [r3, #8]
 634:.\StdPeriphLib\src/stm32f10x_flash.c ****     
 761              		.loc 1 634 0
 762 0020 02F18832 		add	r2, r2, #-2004318072
 763 0024 9A60     		str	r2, [r3, #8]
 637:.\StdPeriphLib\src/stm32f10x_flash.c ****     FLASH->CR |= CR_STRT_Set;
 764              		.loc 1 637 0
 765 0026 1A69     		ldr	r2, [r3, #16]
 766 0028 42F02002 		orr	r2, r2, #32
 767 002c 1A61     		str	r2, [r3, #16]
 638:.\StdPeriphLib\src/stm32f10x_flash.c ****     /* Wait for last operation to be completed */
 768              		.loc 1 638 0
 769 002e 1A69     		ldr	r2, [r3, #16]
 770 0030 42F04002 		orr	r2, r2, #64
 771 0034 1A61     		str	r2, [r3, #16]
 640:.\StdPeriphLib\src/stm32f10x_flash.c ****     
 772              		.loc 1 640 0
 773 0036 4FF43020 		mov	r0, #720896
 774              	.LVL52:
 775 003a FFF7FEFF 		bl	FLASH_WaitForLastOperation
 776              	.LVL53:
 642:.\StdPeriphLib\src/stm32f10x_flash.c ****     {
 777              		.loc 1 642 0
 778 003e 0428     		cmp	r0, #4
 779 0040 1AD1     		bne	.L83
 645:.\StdPeriphLib\src/stm32f10x_flash.c ****        
 780              		.loc 1 645 0
 781 0042 124B     		ldr	r3, .L86
 782 0044 1A69     		ldr	r2, [r3, #16]
 783 0046 22F02002 		bic	r2, r2, #32
 784 004a D204     		lsls	r2, r2, #19
 785 004c D20C     		lsrs	r2, r2, #19
 786 004e 1A61     		str	r2, [r3, #16]
 648:.\StdPeriphLib\src/stm32f10x_flash.c ****       /* Restore the last read protection Option Byte value */
 787              		.loc 1 648 0
 788 0050 1A69     		ldr	r2, [r3, #16]
 789 0052 42F01002 		orr	r2, r2, #16
 790 0056 1A61     		str	r2, [r3, #16]
 650:.\StdPeriphLib\src/stm32f10x_flash.c ****       /* Wait for last operation to be completed */
 791              		.loc 1 650 0
 792 0058 0E4B     		ldr	r3, .L86+8
 793 005a 1C80     		strh	r4, [r3]	@ movhi
 652:.\StdPeriphLib\src/stm32f10x_flash.c ****  
 794              		.loc 1 652 0
 795 005c 4FF40050 		mov	r0, #8192
 796              	.LVL54:
 797 0060 FFF7FEFF 		bl	FLASH_WaitForLastOperation
 798              	.LVL55:
 654:.\StdPeriphLib\src/stm32f10x_flash.c ****       {
 799              		.loc 1 654 0
 800 0064 0528     		cmp	r0, #5
 801 0066 10D0     		beq	.L82
 657:.\StdPeriphLib\src/stm32f10x_flash.c ****       }
 802              		.loc 1 657 0
 803 0068 084A     		ldr	r2, .L86
 804 006a 1369     		ldr	r3, [r2, #16]
 805 006c 23F01003 		bic	r3, r3, #16
 806 0070 DB04     		lsls	r3, r3, #19
 807 0072 DB0C     		lsrs	r3, r3, #19
 808 0074 1361     		str	r3, [r2, #16]
 809 0076 10BD     		pop	{r4, pc}
 810              	.LVL56:
 811              	.L83:
 662:.\StdPeriphLib\src/stm32f10x_flash.c ****       {
 812              		.loc 1 662 0
 813 0078 0528     		cmp	r0, #5
 814 007a 06D0     		beq	.L82
 665:.\StdPeriphLib\src/stm32f10x_flash.c ****       }
 815              		.loc 1 665 0
 816 007c 034A     		ldr	r2, .L86
 817 007e 1369     		ldr	r3, [r2, #16]
 818 0080 23F01003 		bic	r3, r3, #16
 819 0084 DB04     		lsls	r3, r3, #19
 820 0086 DB0C     		lsrs	r3, r3, #19
 821 0088 1361     		str	r3, [r2, #16]
 822              	.L82:
 671:.\StdPeriphLib\src/stm32f10x_flash.c **** 
 823              		.loc 1 671 0
 824 008a 10BD     		pop	{r4, pc}
 825              	.LVL57:
 826              	.L87:
 827              		.align	2
 828              	.L86:
 829 008c 00200240 		.word	1073881088
 830 0090 23016745 		.word	1164378403
 831 0094 00F8FF1F 		.word	536868864
 832              		.cfi_endproc
 833              	.LFE39:
 835              		.section	.text.FLASH_ProgramWord,"ax",%progbits
 836              		.align	2
 837              		.global	FLASH_ProgramWord
 838              		.thumb
 839              		.thumb_func
 841              	FLASH_ProgramWord:
 842              	.LFB40:
 682:.\StdPeriphLib\src/stm32f10x_flash.c ****   FLASH_Status status = FLASH_COMPLETE;
 843              		.loc 1 682 0
 844              		.cfi_startproc
 845              		@ args = 0, pretend = 0, frame = 8
 846              		@ frame_needed = 0, uses_anonymous_args = 0
 847              	.LVL58:
 848 0000 30B5     		push	{r4, r5, lr}
 849              	.LCFI4:
 850              		.cfi_def_cfa_offset 12
 851              		.cfi_offset 4, -12
 852              		.cfi_offset 5, -8
 853              		.cfi_offset 14, -4
 854 0002 83B0     		sub	sp, sp, #12
 855              	.LCFI5:
 856              		.cfi_def_cfa_offset 24
 857 0004 0546     		mov	r5, r0
 858 0006 0C46     		mov	r4, r1
 859              	.LVL59:
 684:.\StdPeriphLib\src/stm32f10x_flash.c **** 
 860              		.loc 1 684 0
 861 0008 0023     		movs	r3, #0
 862 000a 0193     		str	r3, [sp, #4]
 812:.\StdPeriphLib\src/stm32f10x_flash.c ****   
 863              		.loc 1 812 0
 864 000c 4FF40050 		mov	r0, #8192
 865              	.LVL60:
 866 0010 FFF7FEFF 		bl	FLASH_WaitForLastOperation
 867              	.LVL61:
 814:.\StdPeriphLib\src/stm32f10x_flash.c ****   {
 868              		.loc 1 814 0
 869 0014 0428     		cmp	r0, #4
 870 0016 24D1     		bne	.L89
 818:.\StdPeriphLib\src/stm32f10x_flash.c ****   
 871              		.loc 1 818 0
 872 0018 134A     		ldr	r2, .L92
 873 001a 1369     		ldr	r3, [r2, #16]
 874 001c 43F00103 		orr	r3, r3, #1
 875 0020 1361     		str	r3, [r2, #16]
 820:.\StdPeriphLib\src/stm32f10x_flash.c ****     /* Wait for last operation to be completed */
 876              		.loc 1 820 0
 877 0022 A3B2     		uxth	r3, r4
 878 0024 2B80     		strh	r3, [r5]	@ movhi
 822:.\StdPeriphLib\src/stm32f10x_flash.c ****  
 879              		.loc 1 822 0
 880 0026 4FF40050 		mov	r0, #8192
 881              	.LVL62:
 882 002a FFF7FEFF 		bl	FLASH_WaitForLastOperation
 883              	.LVL63:
 824:.\StdPeriphLib\src/stm32f10x_flash.c ****     {
 884              		.loc 1 824 0
 885 002e 0428     		cmp	r0, #4
 886 0030 10D1     		bne	.L90
 828:.\StdPeriphLib\src/stm32f10x_flash.c **** 
 887              		.loc 1 828 0
 888 0032 0235     		adds	r5, r5, #2
 889              	.LVL64:
 890 0034 0195     		str	r5, [sp, #4]
 830:.\StdPeriphLib\src/stm32f10x_flash.c ****     
 891              		.loc 1 830 0
 892 0036 019B     		ldr	r3, [sp, #4]
 893 0038 240C     		lsrs	r4, r4, #16
 894              	.LVL65:
 895 003a 1C80     		strh	r4, [r3]	@ movhi
 833:.\StdPeriphLib\src/stm32f10x_flash.c ****         
 896              		.loc 1 833 0
 897 003c 4FF40050 		mov	r0, #8192
 898              	.LVL66:
 899 0040 FFF7FEFF 		bl	FLASH_WaitForLastOperation
 900              	.LVL67:
 836:.\StdPeriphLib\src/stm32f10x_flash.c ****     }
 901              		.loc 1 836 0
 902 0044 084A     		ldr	r2, .L92
 903 0046 1369     		ldr	r3, [r2, #16]
 904 0048 23F00103 		bic	r3, r3, #1
 905 004c DB04     		lsls	r3, r3, #19
 906 004e DB0C     		lsrs	r3, r3, #19
 907 0050 1361     		str	r3, [r2, #16]
 908 0052 06E0     		b	.L89
 909              	.LVL68:
 910              	.L90:
 841:.\StdPeriphLib\src/stm32f10x_flash.c ****     }
 911              		.loc 1 841 0
 912 0054 044A     		ldr	r2, .L92
 913 0056 1369     		ldr	r3, [r2, #16]
 914 0058 23F00103 		bic	r3, r3, #1
 915 005c DB04     		lsls	r3, r3, #19
 916 005e DB0C     		lsrs	r3, r3, #19
 917 0060 1361     		str	r3, [r2, #16]
 918              	.LVL69:
 919              	.L89:
 848:.\StdPeriphLib\src/stm32f10x_flash.c **** 
 920              		.loc 1 848 0
 921 0062 03B0     		add	sp, sp, #12
 922              	.LCFI6:
 923              		.cfi_def_cfa_offset 12
 924              		@ sp needed
 925 0064 30BD     		pop	{r4, r5, pc}
 926              	.L93:
 927 0066 00BF     		.align	2
 928              	.L92:
 929 0068 00200240 		.word	1073881088
 930              		.cfi_endproc
 931              	.LFE40:
 933              		.section	.text.FLASH_ProgramHalfWord,"ax",%progbits
 934              		.align	2
 935              		.global	FLASH_ProgramHalfWord
 936              		.thumb
 937              		.thumb_func
 939              	FLASH_ProgramHalfWord:
 940              	.LFB41:
 859:.\StdPeriphLib\src/stm32f10x_flash.c ****   FLASH_Status status = FLASH_COMPLETE;
 941              		.loc 1 859 0
 942              		.cfi_startproc
 943              		@ args = 0, pretend = 0, frame = 0
 944              		@ frame_needed = 0, uses_anonymous_args = 0
 945              	.LVL70:
 946 0000 70B5     		push	{r4, r5, r6, lr}
 947              	.LCFI7:
 948              		.cfi_def_cfa_offset 16
 949              		.cfi_offset 4, -16
 950              		.cfi_offset 5, -12
 951              		.cfi_offset 6, -8
 952              		.cfi_offset 14, -4
 953 0002 0446     		mov	r4, r0
 954 0004 0D46     		mov	r5, r1
 955              	.LVL71:
 900:.\StdPeriphLib\src/stm32f10x_flash.c ****   
 956              		.loc 1 900 0
 957 0006 4FF40050 		mov	r0, #8192
 958              	.LVL72:
 959 000a FFF7FEFF 		bl	FLASH_WaitForLastOperation
 960              	.LVL73:
 902:.\StdPeriphLib\src/stm32f10x_flash.c ****   {
 961              		.loc 1 902 0
 962 000e 0428     		cmp	r0, #4
 963 0010 0FD1     		bne	.L95
 905:.\StdPeriphLib\src/stm32f10x_flash.c ****   
 964              		.loc 1 905 0
 965 0012 084E     		ldr	r6, .L97
 966 0014 3369     		ldr	r3, [r6, #16]
 967 0016 43F00103 		orr	r3, r3, #1
 968 001a 3361     		str	r3, [r6, #16]
 907:.\StdPeriphLib\src/stm32f10x_flash.c ****     /* Wait for last operation to be completed */
 969              		.loc 1 907 0
 970 001c 2580     		strh	r5, [r4]	@ movhi
 909:.\StdPeriphLib\src/stm32f10x_flash.c ****     
 971              		.loc 1 909 0
 972 001e 4FF40050 		mov	r0, #8192
 973              	.LVL74:
 974 0022 FFF7FEFF 		bl	FLASH_WaitForLastOperation
 975              	.LVL75:
 912:.\StdPeriphLib\src/stm32f10x_flash.c ****   } 
 976              		.loc 1 912 0
 977 0026 3369     		ldr	r3, [r6, #16]
 978 0028 23F00103 		bic	r3, r3, #1
 979 002c DB04     		lsls	r3, r3, #19
 980 002e DB0C     		lsrs	r3, r3, #19
 981 0030 3361     		str	r3, [r6, #16]
 982              	.L95:
 918:.\StdPeriphLib\src/stm32f10x_flash.c **** 
 983              		.loc 1 918 0
 984 0032 70BD     		pop	{r4, r5, r6, pc}
 985              	.LVL76:
 986              	.L98:
 987              		.align	2
 988              	.L97:
 989 0034 00200240 		.word	1073881088
 990              		.cfi_endproc
 991              	.LFE41:
 993              		.section	.text.FLASH_ProgramOptionByteData,"ax",%progbits
 994              		.align	2
 995              		.global	FLASH_ProgramOptionByteData
 996              		.thumb
 997              		.thumb_func
 999              	FLASH_ProgramOptionByteData:
 1000              	.LFB42:
 930:.\StdPeriphLib\src/stm32f10x_flash.c ****   FLASH_Status status = FLASH_COMPLETE;
 1001              		.loc 1 930 0
 1002              		.cfi_startproc
 1003              		@ args = 0, pretend = 0, frame = 0
 1004              		@ frame_needed = 0, uses_anonymous_args = 0
 1005              	.LVL77:
 1006 0000 38B5     		push	{r3, r4, r5, lr}
 1007              	.LCFI8:
 1008              		.cfi_def_cfa_offset 16
 1009              		.cfi_offset 3, -16
 1010              		.cfi_offset 4, -12
 1011              		.cfi_offset 5, -8
 1012              		.cfi_offset 14, -4
 1013 0002 0546     		mov	r5, r0
 1014 0004 0C46     		mov	r4, r1
 1015              	.LVL78:
 934:.\StdPeriphLib\src/stm32f10x_flash.c **** 
 1016              		.loc 1 934 0
 1017 0006 4FF40050 		mov	r0, #8192
 1018              	.LVL79:
 1019 000a FFF7FEFF 		bl	FLASH_WaitForLastOperation
 1020              	.LVL80:
 936:.\StdPeriphLib\src/stm32f10x_flash.c ****   {
 1021              		.loc 1 936 0
 1022 000e 0428     		cmp	r0, #4
 1023 0010 18D1     		bne	.L100
 939:.\StdPeriphLib\src/stm32f10x_flash.c ****     FLASH->OPTKEYR = FLASH_KEY2;
 1024              		.loc 1 939 0
 1025 0012 0D4B     		ldr	r3, .L102
 1026 0014 0D4A     		ldr	r2, .L102+4
 1027 0016 9A60     		str	r2, [r3, #8]
 940:.\StdPeriphLib\src/stm32f10x_flash.c ****     /* Enables the Option Bytes Programming operation */
 1028              		.loc 1 940 0
 1029 0018 02F18832 		add	r2, r2, #-2004318072
 1030 001c 9A60     		str	r2, [r3, #8]
 942:.\StdPeriphLib\src/stm32f10x_flash.c ****     *(__IO uint16_t*)Address = Data;
 1031              		.loc 1 942 0
 1032 001e 1A69     		ldr	r2, [r3, #16]
 1033 0020 42F01002 		orr	r2, r2, #16
 1034 0024 1A61     		str	r2, [r3, #16]
 943:.\StdPeriphLib\src/stm32f10x_flash.c ****     
 1035              		.loc 1 943 0
 1036 0026 A4B2     		uxth	r4, r4
 1037 0028 2C80     		strh	r4, [r5]	@ movhi
 946:.\StdPeriphLib\src/stm32f10x_flash.c ****     if(status != FLASH_TIMEOUT)
 1038              		.loc 1 946 0
 1039 002a 4FF40050 		mov	r0, #8192
 1040              	.LVL81:
 1041 002e FFF7FEFF 		bl	FLASH_WaitForLastOperation
 1042              	.LVL82:
 947:.\StdPeriphLib\src/stm32f10x_flash.c ****     {
 1043              		.loc 1 947 0
 1044 0032 0528     		cmp	r0, #5
 1045 0034 06D0     		beq	.L100
 950:.\StdPeriphLib\src/stm32f10x_flash.c ****     }
 1046              		.loc 1 950 0
 1047 0036 044A     		ldr	r2, .L102
 1048 0038 1369     		ldr	r3, [r2, #16]
 1049 003a 23F01003 		bic	r3, r3, #16
 1050 003e DB04     		lsls	r3, r3, #19
 1051 0040 DB0C     		lsrs	r3, r3, #19
 1052 0042 1361     		str	r3, [r2, #16]
 1053              	.L100:
 955:.\StdPeriphLib\src/stm32f10x_flash.c **** 
 1054              		.loc 1 955 0
 1055 0044 38BD     		pop	{r3, r4, r5, pc}
 1056              	.LVL83:
 1057              	.L103:
 1058 0046 00BF     		.align	2
 1059              	.L102:
 1060 0048 00200240 		.word	1073881088
 1061 004c 23016745 		.word	1164378403
 1062              		.cfi_endproc
 1063              	.LFE42:
 1065              		.section	.text.FLASH_EnableWriteProtection,"ax",%progbits
 1066              		.align	2
 1067              		.global	FLASH_EnableWriteProtection
 1068              		.thumb
 1069              		.thumb_func
 1071              	FLASH_EnableWriteProtection:
 1072              	.LFB43:
 976:.\StdPeriphLib\src/stm32f10x_flash.c ****   uint16_t WRP0_Data = 0xFFFF, WRP1_Data = 0xFFFF, WRP2_Data = 0xFFFF, WRP3_Data = 0xFFFF;
 1073              		.loc 1 976 0
 1074              		.cfi_startproc
 1075              		@ args = 0, pretend = 0, frame = 0
 1076              		@ frame_needed = 0, uses_anonymous_args = 0
 1077              	.LVL84:
 1078 0000 38B5     		push	{r3, r4, r5, lr}
 1079              	.LCFI9:
 1080              		.cfi_def_cfa_offset 16
 1081              		.cfi_offset 3, -16
 1082              		.cfi_offset 4, -12
 1083              		.cfi_offset 5, -8
 1084              		.cfi_offset 14, -4
 1085 0002 0546     		mov	r5, r0
 1086              	.LVL85:
 991:.\StdPeriphLib\src/stm32f10x_flash.c ****   
 1087              		.loc 1 991 0
 1088 0004 4FF40050 		mov	r0, #8192
 1089              	.LVL86:
 1090 0008 FFF7FEFF 		bl	FLASH_WaitForLastOperation
 1091              	.LVL87:
 1092 000c 0446     		mov	r4, r0
 1093              	.LVL88:
 993:.\StdPeriphLib\src/stm32f10x_flash.c ****   {
 1094              		.loc 1 993 0
 1095 000e 0428     		cmp	r0, #4
 1096 0010 44D1     		bne	.L105
 984:.\StdPeriphLib\src/stm32f10x_flash.c ****   WRP0_Data = (uint16_t)(FLASH_Pages & WRP0_Mask);
 1097              		.loc 1 984 0
 1098 0012 ED43     		mvns	r5, r5
 1099              	.LVL89:
 985:.\StdPeriphLib\src/stm32f10x_flash.c ****   WRP1_Data = (uint16_t)((FLASH_Pages & WRP1_Mask) >> 8);
 1100              		.loc 1 985 0
 1101 0014 E9B2     		uxtb	r1, r5
 996:.\StdPeriphLib\src/stm32f10x_flash.c ****     FLASH->OPTKEYR = FLASH_KEY2;
 1102              		.loc 1 996 0
 1103 0016 224B     		ldr	r3, .L114
 1104 0018 224A     		ldr	r2, .L114+4
 1105 001a 9A60     		str	r2, [r3, #8]
 997:.\StdPeriphLib\src/stm32f10x_flash.c ****     FLASH->CR |= CR_OPTPG_Set;
 1106              		.loc 1 997 0
 1107 001c 02F18832 		add	r2, r2, #-2004318072
 1108 0020 9A60     		str	r2, [r3, #8]
 998:.\StdPeriphLib\src/stm32f10x_flash.c ****     if(WRP0_Data != 0xFF)
 1109              		.loc 1 998 0
 1110 0022 1A69     		ldr	r2, [r3, #16]
 1111 0024 42F01002 		orr	r2, r2, #16
 1112 0028 1A61     		str	r2, [r3, #16]
 999:.\StdPeriphLib\src/stm32f10x_flash.c ****     {
 1113              		.loc 1 999 0
 1114 002a FF29     		cmp	r1, #255
 1115 002c 07D0     		beq	.L106
1001:.\StdPeriphLib\src/stm32f10x_flash.c ****       
 1116              		.loc 1 1001 0
 1117 002e 1E4B     		ldr	r3, .L114+8
 1118 0030 1981     		strh	r1, [r3, #8]	@ movhi
1004:.\StdPeriphLib\src/stm32f10x_flash.c ****     }
 1119              		.loc 1 1004 0
 1120 0032 4FF40050 		mov	r0, #8192
 1121              	.LVL90:
 1122 0036 FFF7FEFF 		bl	FLASH_WaitForLastOperation
 1123              	.LVL91:
1006:.\StdPeriphLib\src/stm32f10x_flash.c ****     {
 1124              		.loc 1 1006 0
 1125 003a 0428     		cmp	r0, #4
 1126 003c 20D1     		bne	.L107
 1127              	.L106:
 986:.\StdPeriphLib\src/stm32f10x_flash.c ****   WRP2_Data = (uint16_t)((FLASH_Pages & WRP2_Mask) >> 16);
 1128              		.loc 1 986 0 discriminator 1
 1129 003e C5F30723 		ubfx	r3, r5, #8, #8
 1130              	.LVL92:
1006:.\StdPeriphLib\src/stm32f10x_flash.c ****     {
 1131              		.loc 1 1006 0 discriminator 1
 1132 0042 FF2B     		cmp	r3, #255
 1133 0044 07D0     		beq	.L108
1008:.\StdPeriphLib\src/stm32f10x_flash.c ****       
 1134              		.loc 1 1008 0
 1135 0046 184A     		ldr	r2, .L114+8
 1136 0048 5381     		strh	r3, [r2, #10]	@ movhi
1011:.\StdPeriphLib\src/stm32f10x_flash.c ****     }
 1137              		.loc 1 1011 0
 1138 004a 4FF40050 		mov	r0, #8192
 1139 004e FFF7FEFF 		bl	FLASH_WaitForLastOperation
 1140              	.LVL93:
1013:.\StdPeriphLib\src/stm32f10x_flash.c ****     {
 1141              		.loc 1 1013 0
 1142 0052 0428     		cmp	r0, #4
 1143 0054 14D1     		bne	.L107
 1144              	.LVL94:
 1145              	.L108:
 987:.\StdPeriphLib\src/stm32f10x_flash.c ****   WRP3_Data = (uint16_t)((FLASH_Pages & WRP3_Mask) >> 24);
 1146              		.loc 1 987 0 discriminator 1
 1147 0056 C5F30743 		ubfx	r3, r5, #16, #8
 1148              	.LVL95:
1013:.\StdPeriphLib\src/stm32f10x_flash.c ****     {
 1149              		.loc 1 1013 0 discriminator 1
 1150 005a FF2B     		cmp	r3, #255
 1151 005c 07D0     		beq	.L109
1015:.\StdPeriphLib\src/stm32f10x_flash.c ****       
 1152              		.loc 1 1015 0
 1153 005e 124A     		ldr	r2, .L114+8
 1154 0060 9381     		strh	r3, [r2, #12]	@ movhi
1018:.\StdPeriphLib\src/stm32f10x_flash.c ****     }
 1155              		.loc 1 1018 0
 1156 0062 4FF40050 		mov	r0, #8192
 1157 0066 FFF7FEFF 		bl	FLASH_WaitForLastOperation
 1158              	.LVL96:
1021:.\StdPeriphLib\src/stm32f10x_flash.c ****     {
 1159              		.loc 1 1021 0
 1160 006a 0428     		cmp	r0, #4
 1161 006c 08D1     		bne	.L107
 1162              	.LVL97:
 1163              	.L109:
 988:.\StdPeriphLib\src/stm32f10x_flash.c ****   
 1164              		.loc 1 988 0 discriminator 1
 1165 006e 2D0E     		lsrs	r5, r5, #24
 1166              	.LVL98:
1021:.\StdPeriphLib\src/stm32f10x_flash.c ****     {
 1167              		.loc 1 1021 0 discriminator 1
 1168 0070 FF2D     		cmp	r5, #255
 1169 0072 08D0     		beq	.L111
1023:.\StdPeriphLib\src/stm32f10x_flash.c ****      
 1170              		.loc 1 1023 0
 1171 0074 0C4B     		ldr	r3, .L114+8
 1172 0076 DD81     		strh	r5, [r3, #14]	@ movhi
1026:.\StdPeriphLib\src/stm32f10x_flash.c ****     }
 1173              		.loc 1 1026 0
 1174 0078 4FF40050 		mov	r0, #8192
 1175 007c FFF7FEFF 		bl	FLASH_WaitForLastOperation
 1176              	.LVL99:
 1177              	.L107:
1029:.\StdPeriphLib\src/stm32f10x_flash.c ****     {
 1178              		.loc 1 1029 0
 1179 0080 0528     		cmp	r0, #5
 1180 0082 01D1     		bne	.L110
 1181 0084 09E0     		b	.L112
 1182              	.LVL100:
 1183              	.L111:
 1184 0086 2046     		mov	r0, r4
 1185              	.LVL101:
 1186              	.L110:
1032:.\StdPeriphLib\src/stm32f10x_flash.c ****     }
 1187              		.loc 1 1032 0
 1188 0088 054A     		ldr	r2, .L114
 1189 008a 1369     		ldr	r3, [r2, #16]
 1190 008c 23F01003 		bic	r3, r3, #16
 1191 0090 DB04     		lsls	r3, r3, #19
 1192 0092 DB0C     		lsrs	r3, r3, #19
 1193 0094 1361     		str	r3, [r2, #16]
 1194 0096 0446     		mov	r4, r0
 1195 0098 00E0     		b	.L105
 1196              	.L112:
 1197 009a 0446     		mov	r4, r0
 1198              	.L105:
 1199              	.LVL102:
1037:.\StdPeriphLib\src/stm32f10x_flash.c **** 
 1200              		.loc 1 1037 0
 1201 009c 2046     		mov	r0, r4
 1202 009e 38BD     		pop	{r3, r4, r5, pc}
 1203              	.LVL103:
 1204              	.L115:
 1205              		.align	2
 1206              	.L114:
 1207 00a0 00200240 		.word	1073881088
 1208 00a4 23016745 		.word	1164378403
 1209 00a8 00F8FF1F 		.word	536868864
 1210              		.cfi_endproc
 1211              	.LFE43:
 1213              		.section	.text.FLASH_ReadOutProtection,"ax",%progbits
 1214              		.align	2
 1215              		.global	FLASH_ReadOutProtection
 1216              		.thumb
 1217              		.thumb_func
 1219              	FLASH_ReadOutProtection:
 1220              	.LFB44:
1050:.\StdPeriphLib\src/stm32f10x_flash.c ****   FLASH_Status status = FLASH_COMPLETE;
 1221              		.loc 1 1050 0
 1222              		.cfi_startproc
 1223              		@ args = 0, pretend = 0, frame = 0
 1224              		@ frame_needed = 0, uses_anonymous_args = 0
 1225              	.LVL104:
 1226 0000 10B5     		push	{r4, lr}
 1227              	.LCFI10:
 1228              		.cfi_def_cfa_offset 8
 1229              		.cfi_offset 4, -8
 1230              		.cfi_offset 14, -4
 1231 0002 0446     		mov	r4, r0
 1232              	.LVL105:
1054:.\StdPeriphLib\src/stm32f10x_flash.c ****   if(status == FLASH_COMPLETE)
 1233              		.loc 1 1054 0
 1234 0004 4FF43020 		mov	r0, #720896
 1235              	.LVL106:
 1236 0008 FFF7FEFF 		bl	FLASH_WaitForLastOperation
 1237              	.LVL107:
1055:.\StdPeriphLib\src/stm32f10x_flash.c ****   {
 1238              		.loc 1 1055 0
 1239 000c 0428     		cmp	r0, #4
 1240 000e 3DD1     		bne	.L117
1058:.\StdPeriphLib\src/stm32f10x_flash.c ****     FLASH->OPTKEYR = FLASH_KEY2;
 1241              		.loc 1 1058 0
 1242 0010 1F4B     		ldr	r3, .L122
 1243 0012 204A     		ldr	r2, .L122+4
 1244 0014 9A60     		str	r2, [r3, #8]
1059:.\StdPeriphLib\src/stm32f10x_flash.c ****     FLASH->CR |= CR_OPTER_Set;
 1245              		.loc 1 1059 0
 1246 0016 02F18832 		add	r2, r2, #-2004318072
 1247 001a 9A60     		str	r2, [r3, #8]
1060:.\StdPeriphLib\src/stm32f10x_flash.c ****     FLASH->CR |= CR_STRT_Set;
 1248              		.loc 1 1060 0
 1249 001c 1A69     		ldr	r2, [r3, #16]
 1250 001e 42F02002 		orr	r2, r2, #32
 1251 0022 1A61     		str	r2, [r3, #16]
1061:.\StdPeriphLib\src/stm32f10x_flash.c ****     /* Wait for last operation to be completed */
 1252              		.loc 1 1061 0
 1253 0024 1A69     		ldr	r2, [r3, #16]
 1254 0026 42F04002 		orr	r2, r2, #64
 1255 002a 1A61     		str	r2, [r3, #16]
1063:.\StdPeriphLib\src/stm32f10x_flash.c ****     if(status == FLASH_COMPLETE)
 1256              		.loc 1 1063 0
 1257 002c 4FF43020 		mov	r0, #720896
 1258              	.LVL108:
 1259 0030 FFF7FEFF 		bl	FLASH_WaitForLastOperation
 1260              	.LVL109:
1064:.\StdPeriphLib\src/stm32f10x_flash.c ****     {
 1261              		.loc 1 1064 0
 1262 0034 0428     		cmp	r0, #4
 1263 0036 20D1     		bne	.L118
1067:.\StdPeriphLib\src/stm32f10x_flash.c ****       /* Enable the Option Bytes Programming operation */
 1264              		.loc 1 1067 0
 1265 0038 154B     		ldr	r3, .L122
 1266 003a 1A69     		ldr	r2, [r3, #16]
 1267 003c 22F02002 		bic	r2, r2, #32
 1268 0040 D204     		lsls	r2, r2, #19
 1269 0042 D20C     		lsrs	r2, r2, #19
 1270 0044 1A61     		str	r2, [r3, #16]
1069:.\StdPeriphLib\src/stm32f10x_flash.c ****       if(NewState != DISABLE)
 1271              		.loc 1 1069 0
 1272 0046 1A69     		ldr	r2, [r3, #16]
 1273 0048 42F01002 		orr	r2, r2, #16
 1274 004c 1A61     		str	r2, [r3, #16]
1070:.\StdPeriphLib\src/stm32f10x_flash.c ****       {
 1275              		.loc 1 1070 0
 1276 004e 1CB1     		cbz	r4, .L119
1072:.\StdPeriphLib\src/stm32f10x_flash.c ****       }
 1277              		.loc 1 1072 0
 1278 0050 0022     		movs	r2, #0
 1279 0052 114B     		ldr	r3, .L122+8
 1280 0054 1A80     		strh	r2, [r3]	@ movhi
 1281 0056 02E0     		b	.L120
 1282              	.L119:
1076:.\StdPeriphLib\src/stm32f10x_flash.c ****       }
 1283              		.loc 1 1076 0
 1284 0058 A522     		movs	r2, #165
 1285 005a 0F4B     		ldr	r3, .L122+8
 1286 005c 1A80     		strh	r2, [r3]	@ movhi
 1287              	.L120:
1079:.\StdPeriphLib\src/stm32f10x_flash.c ****     
 1288              		.loc 1 1079 0
 1289 005e 4FF43020 		mov	r0, #720896
 1290              	.LVL110:
 1291 0062 FFF7FEFF 		bl	FLASH_WaitForLastOperation
 1292              	.LVL111:
1081:.\StdPeriphLib\src/stm32f10x_flash.c ****       {
 1293              		.loc 1 1081 0
 1294 0066 0528     		cmp	r0, #5
 1295 0068 10D0     		beq	.L117
1084:.\StdPeriphLib\src/stm32f10x_flash.c ****       }
 1296              		.loc 1 1084 0
 1297 006a 094A     		ldr	r2, .L122
 1298 006c 1369     		ldr	r3, [r2, #16]
 1299 006e 23F01003 		bic	r3, r3, #16
 1300 0072 DB04     		lsls	r3, r3, #19
 1301 0074 DB0C     		lsrs	r3, r3, #19
 1302 0076 1361     		str	r3, [r2, #16]
 1303 0078 10BD     		pop	{r4, pc}
 1304              	.L118:
1089:.\StdPeriphLib\src/stm32f10x_flash.c ****       {
 1305              		.loc 1 1089 0
 1306 007a 0528     		cmp	r0, #5
 1307 007c 06D0     		beq	.L117
1092:.\StdPeriphLib\src/stm32f10x_flash.c ****       }
 1308              		.loc 1 1092 0
 1309 007e 044A     		ldr	r2, .L122
 1310 0080 1369     		ldr	r3, [r2, #16]
 1311 0082 23F02003 		bic	r3, r3, #32
 1312 0086 DB04     		lsls	r3, r3, #19
 1313 0088 DB0C     		lsrs	r3, r3, #19
 1314 008a 1361     		str	r3, [r2, #16]
 1315              	.L117:
1098:.\StdPeriphLib\src/stm32f10x_flash.c **** 
 1316              		.loc 1 1098 0
 1317 008c 10BD     		pop	{r4, pc}
 1318              	.L123:
 1319 008e 00BF     		.align	2
 1320              	.L122:
 1321 0090 00200240 		.word	1073881088
 1322 0094 23016745 		.word	1164378403
 1323 0098 00F8FF1F 		.word	536868864
 1324              		.cfi_endproc
 1325              	.LFE44:
 1327              		.section	.text.FLASH_UserOptionByteConfig,"ax",%progbits
 1328              		.align	2
 1329              		.global	FLASH_UserOptionByteConfig
 1330              		.thumb
 1331              		.thumb_func
 1333              	FLASH_UserOptionByteConfig:
 1334              	.LFB45:
1119:.\StdPeriphLib\src/stm32f10x_flash.c ****   FLASH_Status status = FLASH_COMPLETE; 
 1335              		.loc 1 1119 0
 1336              		.cfi_startproc
 1337              		@ args = 0, pretend = 0, frame = 0
 1338              		@ frame_needed = 0, uses_anonymous_args = 0
 1339              	.LVL112:
 1340 0000 70B5     		push	{r4, r5, r6, lr}
 1341              	.LCFI11:
 1342              		.cfi_def_cfa_offset 16
 1343              		.cfi_offset 4, -16
 1344              		.cfi_offset 5, -12
 1345              		.cfi_offset 6, -8
 1346              		.cfi_offset 14, -4
 1347 0002 0446     		mov	r4, r0
 1348 0004 0E46     		mov	r6, r1
 1349 0006 1546     		mov	r5, r2
 1350              	.LVL113:
1128:.\StdPeriphLib\src/stm32f10x_flash.c ****   FLASH->OPTKEYR = FLASH_KEY2;
 1351              		.loc 1 1128 0
 1352 0008 124B     		ldr	r3, .L127
 1353 000a 134A     		ldr	r2, .L127+4
 1354              	.LVL114:
 1355 000c 9A60     		str	r2, [r3, #8]
1129:.\StdPeriphLib\src/stm32f10x_flash.c ****   
 1356              		.loc 1 1129 0
 1357 000e 02F18832 		add	r2, r2, #-2004318072
 1358 0012 9A60     		str	r2, [r3, #8]
1132:.\StdPeriphLib\src/stm32f10x_flash.c ****   
 1359              		.loc 1 1132 0
 1360 0014 4FF40050 		mov	r0, #8192
 1361              	.LVL115:
 1362 0018 FFF7FEFF 		bl	FLASH_WaitForLastOperation
 1363              	.LVL116:
1134:.\StdPeriphLib\src/stm32f10x_flash.c ****   {  
 1364              		.loc 1 1134 0
 1365 001c 0428     		cmp	r0, #4
 1366 001e 17D1     		bne	.L125
1137:.\StdPeriphLib\src/stm32f10x_flash.c ****            
 1367              		.loc 1 1137 0
 1368 0020 0C4A     		ldr	r2, .L127
 1369 0022 1369     		ldr	r3, [r2, #16]
 1370 0024 43F01003 		orr	r3, r3, #16
 1371 0028 1361     		str	r3, [r2, #16]
 1372 002a 44F0F802 		orr	r2, r4, #248
 1373 002e 3243     		orrs	r2, r2, r6
1139:.\StdPeriphLib\src/stm32f10x_flash.c ****   
 1374              		.loc 1 1139 0
 1375 0030 2A43     		orrs	r2, r2, r5
 1376 0032 0A4B     		ldr	r3, .L127+8
 1377 0034 5A80     		strh	r2, [r3, #2]	@ movhi
1142:.\StdPeriphLib\src/stm32f10x_flash.c ****     if(status != FLASH_TIMEOUT)
 1378              		.loc 1 1142 0
 1379 0036 4FF40050 		mov	r0, #8192
 1380              	.LVL117:
 1381 003a FFF7FEFF 		bl	FLASH_WaitForLastOperation
 1382              	.LVL118:
1143:.\StdPeriphLib\src/stm32f10x_flash.c ****     {
 1383              		.loc 1 1143 0
 1384 003e 0528     		cmp	r0, #5
 1385 0040 06D0     		beq	.L125
1146:.\StdPeriphLib\src/stm32f10x_flash.c ****     }
 1386              		.loc 1 1146 0
 1387 0042 044A     		ldr	r2, .L127
 1388 0044 1369     		ldr	r3, [r2, #16]
 1389 0046 23F01003 		bic	r3, r3, #16
 1390 004a DB04     		lsls	r3, r3, #19
 1391 004c DB0C     		lsrs	r3, r3, #19
 1392 004e 1361     		str	r3, [r2, #16]
 1393              	.L125:
1151:.\StdPeriphLib\src/stm32f10x_flash.c **** 
 1394              		.loc 1 1151 0
 1395 0050 70BD     		pop	{r4, r5, r6, pc}
 1396              	.L128:
 1397 0052 00BF     		.align	2
 1398              	.L127:
 1399 0054 00200240 		.word	1073881088
 1400 0058 23016745 		.word	1164378403
 1401 005c 00F8FF1F 		.word	536868864
 1402              		.cfi_endproc
 1403              	.LFE45:
 1405              		.section	.text.FLASH_WaitForLastBank1Operation,"ax",%progbits
 1406              		.align	2
 1407              		.global	FLASH_WaitForLastBank1Operation
 1408              		.thumb
 1409              		.thumb_func
 1411              	FLASH_WaitForLastBank1Operation:
 1412              	.LFB56:
1614:.\StdPeriphLib\src/stm32f10x_flash.c **** 
1615:.\StdPeriphLib\src/stm32f10x_flash.c **** /**
1616:.\StdPeriphLib\src/stm32f10x_flash.c ****   * @brief  Waits for a Flash operation on Bank1 to complete or a TIMEOUT to occur.
1617:.\StdPeriphLib\src/stm32f10x_flash.c ****   * @note   This function can be used for all STM32F10x devices, 
1618:.\StdPeriphLib\src/stm32f10x_flash.c ****   *         it is equivalent to FLASH_WaitForLastOperation.
1619:.\StdPeriphLib\src/stm32f10x_flash.c ****   * @param  Timeout: FLASH programming Timeout
1620:.\StdPeriphLib\src/stm32f10x_flash.c ****   * @retval FLASH Status: The returned value can be: FLASH_ERROR_PG,
1621:.\StdPeriphLib\src/stm32f10x_flash.c ****   *         FLASH_ERROR_WRP, FLASH_COMPLETE or FLASH_TIMEOUT.
1622:.\StdPeriphLib\src/stm32f10x_flash.c ****   */
1623:.\StdPeriphLib\src/stm32f10x_flash.c **** FLASH_Status FLASH_WaitForLastBank1Operation(uint32_t Timeout)
1624:.\StdPeriphLib\src/stm32f10x_flash.c **** { 
 1413              		.loc 1 1624 0
 1414              		.cfi_startproc
 1415              		@ args = 0, pretend = 0, frame = 0
 1416              		@ frame_needed = 0, uses_anonymous_args = 0
 1417              	.LVL119:
 1418 0000 10B5     		push	{r4, lr}
 1419              	.LCFI12:
 1420              		.cfi_def_cfa_offset 8
 1421              		.cfi_offset 4, -8
 1422              		.cfi_offset 14, -4
 1423 0002 0446     		mov	r4, r0
 1424              	.LVL120:
1625:.\StdPeriphLib\src/stm32f10x_flash.c ****   FLASH_Status status = FLASH_COMPLETE;
1626:.\StdPeriphLib\src/stm32f10x_flash.c ****    
1627:.\StdPeriphLib\src/stm32f10x_flash.c ****   /* Check for the Flash Status */
1628:.\StdPeriphLib\src/stm32f10x_flash.c ****   status = FLASH_GetBank1Status();
 1425              		.loc 1 1628 0
 1426 0004 FFF7FEFF 		bl	FLASH_GetBank1Status
 1427              	.LVL121:
1629:.\StdPeriphLib\src/stm32f10x_flash.c ****   /* Wait for a Flash operation to complete or a TIMEOUT to occur */
1630:.\StdPeriphLib\src/stm32f10x_flash.c ****   while((status == FLASH_FLAG_BANK1_BSY) && (Timeout != 0x00))
 1428              		.loc 1 1630 0
 1429 0008 0128     		cmp	r0, #1
 1430 000a 08D1     		bne	.L130
 1431 000c 5CB1     		cbz	r4, .L131
 1432              	.L135:
 1433              	.LVL122:
1631:.\StdPeriphLib\src/stm32f10x_flash.c ****   {
1632:.\StdPeriphLib\src/stm32f10x_flash.c ****     status = FLASH_GetBank1Status();
 1434              		.loc 1 1632 0
 1435 000e FFF7FEFF 		bl	FLASH_GetBank1Status
 1436              	.LVL123:
1633:.\StdPeriphLib\src/stm32f10x_flash.c ****     Timeout--;
 1437              		.loc 1 1633 0
 1438 0012 013C     		subs	r4, r4, #1
 1439              	.LVL124:
1630:.\StdPeriphLib\src/stm32f10x_flash.c ****   {
 1440              		.loc 1 1630 0
 1441 0014 0128     		cmp	r0, #1
 1442 0016 02D1     		bne	.L130
1630:.\StdPeriphLib\src/stm32f10x_flash.c ****   {
 1443              		.loc 1 1630 0 is_stmt 0 discriminator 1
 1444 0018 002C     		cmp	r4, #0
 1445 001a F8D1     		bne	.L135
 1446 001c 03E0     		b	.L131
 1447              	.L130:
1634:.\StdPeriphLib\src/stm32f10x_flash.c ****   }
1635:.\StdPeriphLib\src/stm32f10x_flash.c ****   if(Timeout == 0x00 )
1636:.\StdPeriphLib\src/stm32f10x_flash.c ****   {
1637:.\StdPeriphLib\src/stm32f10x_flash.c ****     status = FLASH_TIMEOUT;
 1448              		.loc 1 1637 0 is_stmt 1
 1449 001e 002C     		cmp	r4, #0
 1450 0020 08BF     		it	eq
 1451 0022 0520     		moveq	r0, #5
 1452              	.LVL125:
 1453 0024 10BD     		pop	{r4, pc}
 1454              	.LVL126:
 1455              	.L131:
 1456 0026 0520     		movs	r0, #5
 1457              	.LVL127:
1638:.\StdPeriphLib\src/stm32f10x_flash.c ****   }
1639:.\StdPeriphLib\src/stm32f10x_flash.c ****   /* Return the operation status */
1640:.\StdPeriphLib\src/stm32f10x_flash.c ****   return status;
1641:.\StdPeriphLib\src/stm32f10x_flash.c **** }
 1458              		.loc 1 1641 0
 1459 0028 10BD     		pop	{r4, pc}
 1460              		.cfi_endproc
 1461              	.LFE56:
 1463 002a 00BF     		.section	.text.FLASH_EraseAllBank1Pages,"ax",%progbits
 1464              		.align	2
 1465              		.global	FLASH_EraseAllBank1Pages
 1466              		.thumb
 1467              		.thumb_func
 1469              	FLASH_EraseAllBank1Pages:
 1470              	.LFB38:
 556:.\StdPeriphLib\src/stm32f10x_flash.c ****   FLASH_Status status = FLASH_COMPLETE;
 1471              		.loc 1 556 0
 1472              		.cfi_startproc
 1473              		@ args = 0, pretend = 0, frame = 0
 1474              		@ frame_needed = 0, uses_anonymous_args = 0
 1475 0000 10B5     		push	{r4, lr}
 1476              	.LCFI13:
 1477              		.cfi_def_cfa_offset 8
 1478              		.cfi_offset 4, -8
 1479              		.cfi_offset 14, -4
 1480              	.LVL128:
 559:.\StdPeriphLib\src/stm32f10x_flash.c ****   
 1481              		.loc 1 559 0
 1482 0002 4FF43020 		mov	r0, #720896
 1483 0006 FFF7FEFF 		bl	FLASH_WaitForLastBank1Operation
 1484              	.LVL129:
 561:.\StdPeriphLib\src/stm32f10x_flash.c ****   {
 1485              		.loc 1 561 0
 1486 000a 0428     		cmp	r0, #4
 1487 000c 12D1     		bne	.L139
 564:.\StdPeriphLib\src/stm32f10x_flash.c ****      FLASH->CR |= CR_STRT_Set;
 1488              		.loc 1 564 0
 1489 000e 0A4C     		ldr	r4, .L141
 1490 0010 2369     		ldr	r3, [r4, #16]
 1491 0012 43F00403 		orr	r3, r3, #4
 1492 0016 2361     		str	r3, [r4, #16]
 565:.\StdPeriphLib\src/stm32f10x_flash.c ****     
 1493              		.loc 1 565 0
 1494 0018 2369     		ldr	r3, [r4, #16]
 1495 001a 43F04003 		orr	r3, r3, #64
 1496 001e 2361     		str	r3, [r4, #16]
 568:.\StdPeriphLib\src/stm32f10x_flash.c ****     
 1497              		.loc 1 568 0
 1498 0020 4FF43020 		mov	r0, #720896
 1499              	.LVL130:
 1500 0024 FFF7FEFF 		bl	FLASH_WaitForLastBank1Operation
 1501              	.LVL131:
 571:.\StdPeriphLib\src/stm32f10x_flash.c ****   }    
 1502              		.loc 1 571 0
 1503 0028 2369     		ldr	r3, [r4, #16]
 1504 002a 23F00403 		bic	r3, r3, #4
 1505 002e DB04     		lsls	r3, r3, #19
 1506 0030 DB0C     		lsrs	r3, r3, #19
 1507 0032 2361     		str	r3, [r4, #16]
 1508              	.L139:
 575:.\StdPeriphLib\src/stm32f10x_flash.c **** 
 1509              		.loc 1 575 0
 1510 0034 10BD     		pop	{r4, pc}
 1511              	.L142:
 1512 0036 00BF     		.align	2
 1513              	.L141:
 1514 0038 00200240 		.word	1073881088
 1515              		.cfi_endproc
 1516              	.LFE38:
 1518              		.text
 1519              	.Letext0:
 1520              		.file 2 "d:\\atomic\\sublime\\gnu tools arm embedded\\arm-none-eabi\\include\\machine\\_default_ty
 1521              		.file 3 "d:\\atomic\\sublime\\gnu tools arm embedded\\arm-none-eabi\\include\\sys\\_stdint.h"
 1522              		.file 4 ".\\CMSIS/stm32f10x.h"
 1523              		.file 5 ".\\StdPeriphLib\\inc/stm32f10x_flash.h"
 1524              		.file 6 ".\\CMSIS/core_cm3.h"