   1              		.syntax unified
   2              		.cpu cortex-m3
   3              		.fpu softvfp
   4              		.eabi_attribute 20, 1
   5              		.eabi_attribute 21, 1
   6              		.eabi_attribute 23, 3
   7              		.eabi_attribute 24, 1
   8              		.eabi_attribute 25, 1
   9              		.eabi_attribute 26, 1
  10              		.eabi_attribute 30, 1
  11              		.eabi_attribute 34, 1
  12              		.eabi_attribute 18, 4
  13              		.thumb
  14              		.file	"stm32f10x_i2c.c"
  15              		.text
  16              	.Ltext0:
  17              		.cfi_sections	.debug_frame
  18              		.section	.text.I2C_DeInit,"ax",%progbits
  19              		.align	2
  20              		.global	I2C_DeInit
  21              		.thumb
  22              		.thumb_func
  24              	I2C_DeInit:
  25              	.LFB29:
  26              		.file 1 ".\\StdPeriphLib\\src/stm32f10x_i2c.c"
   1:.\StdPeriphLib\src/stm32f10x_i2c.c **** /**
   2:.\StdPeriphLib\src/stm32f10x_i2c.c ****   ******************************************************************************
   3:.\StdPeriphLib\src/stm32f10x_i2c.c ****   * @file    stm32f10x_i2c.c
   4:.\StdPeriphLib\src/stm32f10x_i2c.c ****   * @author  MCD Application Team
   5:.\StdPeriphLib\src/stm32f10x_i2c.c ****   * @version V3.5.0
   6:.\StdPeriphLib\src/stm32f10x_i2c.c ****   * @date    11-March-2011
   7:.\StdPeriphLib\src/stm32f10x_i2c.c ****   * @brief   This file provides all the I2C firmware functions.
   8:.\StdPeriphLib\src/stm32f10x_i2c.c ****   ******************************************************************************
   9:.\StdPeriphLib\src/stm32f10x_i2c.c ****   * @attention
  10:.\StdPeriphLib\src/stm32f10x_i2c.c ****   *
  11:.\StdPeriphLib\src/stm32f10x_i2c.c ****   * THE PRESENT FIRMWARE WHICH IS FOR GUIDANCE ONLY AIMS AT PROVIDING CUSTOMERS
  12:.\StdPeriphLib\src/stm32f10x_i2c.c ****   * WITH CODING INFORMATION REGARDING THEIR PRODUCTS IN ORDER FOR THEM TO SAVE
  13:.\StdPeriphLib\src/stm32f10x_i2c.c ****   * TIME. AS A RESULT, STMICROELECTRONICS SHALL NOT BE HELD LIABLE FOR ANY
  14:.\StdPeriphLib\src/stm32f10x_i2c.c ****   * DIRECT, INDIRECT OR CONSEQUENTIAL DAMAGES WITH RESPECT TO ANY CLAIMS ARISING
  15:.\StdPeriphLib\src/stm32f10x_i2c.c ****   * FROM THE CONTENT OF SUCH FIRMWARE AND/OR THE USE MADE BY CUSTOMERS OF THE
  16:.\StdPeriphLib\src/stm32f10x_i2c.c ****   * CODING INFORMATION CONTAINED HEREIN IN CONNECTION WITH THEIR PRODUCTS.
  17:.\StdPeriphLib\src/stm32f10x_i2c.c ****   *
  18:.\StdPeriphLib\src/stm32f10x_i2c.c ****   * <h2><center>&copy; COPYRIGHT 2011 STMicroelectronics</center></h2>
  19:.\StdPeriphLib\src/stm32f10x_i2c.c ****   ******************************************************************************
  20:.\StdPeriphLib\src/stm32f10x_i2c.c ****   */
  21:.\StdPeriphLib\src/stm32f10x_i2c.c **** 
  22:.\StdPeriphLib\src/stm32f10x_i2c.c **** /* Includes ------------------------------------------------------------------*/
  23:.\StdPeriphLib\src/stm32f10x_i2c.c **** #include "stm32f10x_i2c.h"
  24:.\StdPeriphLib\src/stm32f10x_i2c.c **** #include "stm32f10x_rcc.h"
  25:.\StdPeriphLib\src/stm32f10x_i2c.c **** 
  26:.\StdPeriphLib\src/stm32f10x_i2c.c **** 
  27:.\StdPeriphLib\src/stm32f10x_i2c.c **** /** @addtogroup STM32F10x_StdPeriph_Driver
  28:.\StdPeriphLib\src/stm32f10x_i2c.c ****   * @{
  29:.\StdPeriphLib\src/stm32f10x_i2c.c ****   */
  30:.\StdPeriphLib\src/stm32f10x_i2c.c **** 
  31:.\StdPeriphLib\src/stm32f10x_i2c.c **** /** @defgroup I2C 
  32:.\StdPeriphLib\src/stm32f10x_i2c.c ****   * @brief I2C driver modules
  33:.\StdPeriphLib\src/stm32f10x_i2c.c ****   * @{
  34:.\StdPeriphLib\src/stm32f10x_i2c.c ****   */ 
  35:.\StdPeriphLib\src/stm32f10x_i2c.c **** 
  36:.\StdPeriphLib\src/stm32f10x_i2c.c **** /** @defgroup I2C_Private_TypesDefinitions
  37:.\StdPeriphLib\src/stm32f10x_i2c.c ****   * @{
  38:.\StdPeriphLib\src/stm32f10x_i2c.c ****   */
  39:.\StdPeriphLib\src/stm32f10x_i2c.c **** 
  40:.\StdPeriphLib\src/stm32f10x_i2c.c **** /**
  41:.\StdPeriphLib\src/stm32f10x_i2c.c ****   * @}
  42:.\StdPeriphLib\src/stm32f10x_i2c.c ****   */
  43:.\StdPeriphLib\src/stm32f10x_i2c.c **** 
  44:.\StdPeriphLib\src/stm32f10x_i2c.c **** /** @defgroup I2C_Private_Defines
  45:.\StdPeriphLib\src/stm32f10x_i2c.c ****   * @{
  46:.\StdPeriphLib\src/stm32f10x_i2c.c ****   */
  47:.\StdPeriphLib\src/stm32f10x_i2c.c **** 
  48:.\StdPeriphLib\src/stm32f10x_i2c.c **** /* I2C SPE mask */
  49:.\StdPeriphLib\src/stm32f10x_i2c.c **** #define CR1_PE_Set              ((uint16_t)0x0001)
  50:.\StdPeriphLib\src/stm32f10x_i2c.c **** #define CR1_PE_Reset            ((uint16_t)0xFFFE)
  51:.\StdPeriphLib\src/stm32f10x_i2c.c **** 
  52:.\StdPeriphLib\src/stm32f10x_i2c.c **** /* I2C START mask */
  53:.\StdPeriphLib\src/stm32f10x_i2c.c **** #define CR1_START_Set           ((uint16_t)0x0100)
  54:.\StdPeriphLib\src/stm32f10x_i2c.c **** #define CR1_START_Reset         ((uint16_t)0xFEFF)
  55:.\StdPeriphLib\src/stm32f10x_i2c.c **** 
  56:.\StdPeriphLib\src/stm32f10x_i2c.c **** /* I2C STOP mask */
  57:.\StdPeriphLib\src/stm32f10x_i2c.c **** #define CR1_STOP_Set            ((uint16_t)0x0200)
  58:.\StdPeriphLib\src/stm32f10x_i2c.c **** #define CR1_STOP_Reset          ((uint16_t)0xFDFF)
  59:.\StdPeriphLib\src/stm32f10x_i2c.c **** 
  60:.\StdPeriphLib\src/stm32f10x_i2c.c **** /* I2C ACK mask */
  61:.\StdPeriphLib\src/stm32f10x_i2c.c **** #define CR1_ACK_Set             ((uint16_t)0x0400)
  62:.\StdPeriphLib\src/stm32f10x_i2c.c **** #define CR1_ACK_Reset           ((uint16_t)0xFBFF)
  63:.\StdPeriphLib\src/stm32f10x_i2c.c **** 
  64:.\StdPeriphLib\src/stm32f10x_i2c.c **** /* I2C ENGC mask */
  65:.\StdPeriphLib\src/stm32f10x_i2c.c **** #define CR1_ENGC_Set            ((uint16_t)0x0040)
  66:.\StdPeriphLib\src/stm32f10x_i2c.c **** #define CR1_ENGC_Reset          ((uint16_t)0xFFBF)
  67:.\StdPeriphLib\src/stm32f10x_i2c.c **** 
  68:.\StdPeriphLib\src/stm32f10x_i2c.c **** /* I2C SWRST mask */
  69:.\StdPeriphLib\src/stm32f10x_i2c.c **** #define CR1_SWRST_Set           ((uint16_t)0x8000)
  70:.\StdPeriphLib\src/stm32f10x_i2c.c **** #define CR1_SWRST_Reset         ((uint16_t)0x7FFF)
  71:.\StdPeriphLib\src/stm32f10x_i2c.c **** 
  72:.\StdPeriphLib\src/stm32f10x_i2c.c **** /* I2C PEC mask */
  73:.\StdPeriphLib\src/stm32f10x_i2c.c **** #define CR1_PEC_Set             ((uint16_t)0x1000)
  74:.\StdPeriphLib\src/stm32f10x_i2c.c **** #define CR1_PEC_Reset           ((uint16_t)0xEFFF)
  75:.\StdPeriphLib\src/stm32f10x_i2c.c **** 
  76:.\StdPeriphLib\src/stm32f10x_i2c.c **** /* I2C ENPEC mask */
  77:.\StdPeriphLib\src/stm32f10x_i2c.c **** #define CR1_ENPEC_Set           ((uint16_t)0x0020)
  78:.\StdPeriphLib\src/stm32f10x_i2c.c **** #define CR1_ENPEC_Reset         ((uint16_t)0xFFDF)
  79:.\StdPeriphLib\src/stm32f10x_i2c.c **** 
  80:.\StdPeriphLib\src/stm32f10x_i2c.c **** /* I2C ENARP mask */
  81:.\StdPeriphLib\src/stm32f10x_i2c.c **** #define CR1_ENARP_Set           ((uint16_t)0x0010)
  82:.\StdPeriphLib\src/stm32f10x_i2c.c **** #define CR1_ENARP_Reset         ((uint16_t)0xFFEF)
  83:.\StdPeriphLib\src/stm32f10x_i2c.c **** 
  84:.\StdPeriphLib\src/stm32f10x_i2c.c **** /* I2C NOSTRETCH mask */
  85:.\StdPeriphLib\src/stm32f10x_i2c.c **** #define CR1_NOSTRETCH_Set       ((uint16_t)0x0080)
  86:.\StdPeriphLib\src/stm32f10x_i2c.c **** #define CR1_NOSTRETCH_Reset     ((uint16_t)0xFF7F)
  87:.\StdPeriphLib\src/stm32f10x_i2c.c **** 
  88:.\StdPeriphLib\src/stm32f10x_i2c.c **** /* I2C registers Masks */
  89:.\StdPeriphLib\src/stm32f10x_i2c.c **** #define CR1_CLEAR_Mask          ((uint16_t)0xFBF5)
  90:.\StdPeriphLib\src/stm32f10x_i2c.c **** 
  91:.\StdPeriphLib\src/stm32f10x_i2c.c **** /* I2C DMAEN mask */
  92:.\StdPeriphLib\src/stm32f10x_i2c.c **** #define CR2_DMAEN_Set           ((uint16_t)0x0800)
  93:.\StdPeriphLib\src/stm32f10x_i2c.c **** #define CR2_DMAEN_Reset         ((uint16_t)0xF7FF)
  94:.\StdPeriphLib\src/stm32f10x_i2c.c **** 
  95:.\StdPeriphLib\src/stm32f10x_i2c.c **** /* I2C LAST mask */
  96:.\StdPeriphLib\src/stm32f10x_i2c.c **** #define CR2_LAST_Set            ((uint16_t)0x1000)
  97:.\StdPeriphLib\src/stm32f10x_i2c.c **** #define CR2_LAST_Reset          ((uint16_t)0xEFFF)
  98:.\StdPeriphLib\src/stm32f10x_i2c.c **** 
  99:.\StdPeriphLib\src/stm32f10x_i2c.c **** /* I2C FREQ mask */
 100:.\StdPeriphLib\src/stm32f10x_i2c.c **** #define CR2_FREQ_Reset          ((uint16_t)0xFFC0)
 101:.\StdPeriphLib\src/stm32f10x_i2c.c **** 
 102:.\StdPeriphLib\src/stm32f10x_i2c.c **** /* I2C ADD0 mask */
 103:.\StdPeriphLib\src/stm32f10x_i2c.c **** #define OAR1_ADD0_Set           ((uint16_t)0x0001)
 104:.\StdPeriphLib\src/stm32f10x_i2c.c **** #define OAR1_ADD0_Reset         ((uint16_t)0xFFFE)
 105:.\StdPeriphLib\src/stm32f10x_i2c.c **** 
 106:.\StdPeriphLib\src/stm32f10x_i2c.c **** /* I2C ENDUAL mask */
 107:.\StdPeriphLib\src/stm32f10x_i2c.c **** #define OAR2_ENDUAL_Set         ((uint16_t)0x0001)
 108:.\StdPeriphLib\src/stm32f10x_i2c.c **** #define OAR2_ENDUAL_Reset       ((uint16_t)0xFFFE)
 109:.\StdPeriphLib\src/stm32f10x_i2c.c **** 
 110:.\StdPeriphLib\src/stm32f10x_i2c.c **** /* I2C ADD2 mask */
 111:.\StdPeriphLib\src/stm32f10x_i2c.c **** #define OAR2_ADD2_Reset         ((uint16_t)0xFF01)
 112:.\StdPeriphLib\src/stm32f10x_i2c.c **** 
 113:.\StdPeriphLib\src/stm32f10x_i2c.c **** /* I2C F/S mask */
 114:.\StdPeriphLib\src/stm32f10x_i2c.c **** #define CCR_FS_Set              ((uint16_t)0x8000)
 115:.\StdPeriphLib\src/stm32f10x_i2c.c **** 
 116:.\StdPeriphLib\src/stm32f10x_i2c.c **** /* I2C CCR mask */
 117:.\StdPeriphLib\src/stm32f10x_i2c.c **** #define CCR_CCR_Set             ((uint16_t)0x0FFF)
 118:.\StdPeriphLib\src/stm32f10x_i2c.c **** 
 119:.\StdPeriphLib\src/stm32f10x_i2c.c **** /* I2C FLAG mask */
 120:.\StdPeriphLib\src/stm32f10x_i2c.c **** #define FLAG_Mask               ((uint32_t)0x00FFFFFF)
 121:.\StdPeriphLib\src/stm32f10x_i2c.c **** 
 122:.\StdPeriphLib\src/stm32f10x_i2c.c **** /* I2C Interrupt Enable mask */
 123:.\StdPeriphLib\src/stm32f10x_i2c.c **** #define ITEN_Mask               ((uint32_t)0x07000000)
 124:.\StdPeriphLib\src/stm32f10x_i2c.c **** 
 125:.\StdPeriphLib\src/stm32f10x_i2c.c **** /**
 126:.\StdPeriphLib\src/stm32f10x_i2c.c ****   * @}
 127:.\StdPeriphLib\src/stm32f10x_i2c.c ****   */
 128:.\StdPeriphLib\src/stm32f10x_i2c.c **** 
 129:.\StdPeriphLib\src/stm32f10x_i2c.c **** /** @defgroup I2C_Private_Macros
 130:.\StdPeriphLib\src/stm32f10x_i2c.c ****   * @{
 131:.\StdPeriphLib\src/stm32f10x_i2c.c ****   */
 132:.\StdPeriphLib\src/stm32f10x_i2c.c **** 
 133:.\StdPeriphLib\src/stm32f10x_i2c.c **** /**
 134:.\StdPeriphLib\src/stm32f10x_i2c.c ****   * @}
 135:.\StdPeriphLib\src/stm32f10x_i2c.c ****   */
 136:.\StdPeriphLib\src/stm32f10x_i2c.c **** 
 137:.\StdPeriphLib\src/stm32f10x_i2c.c **** /** @defgroup I2C_Private_Variables
 138:.\StdPeriphLib\src/stm32f10x_i2c.c ****   * @{
 139:.\StdPeriphLib\src/stm32f10x_i2c.c ****   */
 140:.\StdPeriphLib\src/stm32f10x_i2c.c **** 
 141:.\StdPeriphLib\src/stm32f10x_i2c.c **** /**
 142:.\StdPeriphLib\src/stm32f10x_i2c.c ****   * @}
 143:.\StdPeriphLib\src/stm32f10x_i2c.c ****   */
 144:.\StdPeriphLib\src/stm32f10x_i2c.c **** 
 145:.\StdPeriphLib\src/stm32f10x_i2c.c **** /** @defgroup I2C_Private_FunctionPrototypes
 146:.\StdPeriphLib\src/stm32f10x_i2c.c ****   * @{
 147:.\StdPeriphLib\src/stm32f10x_i2c.c ****   */
 148:.\StdPeriphLib\src/stm32f10x_i2c.c **** 
 149:.\StdPeriphLib\src/stm32f10x_i2c.c **** /**
 150:.\StdPeriphLib\src/stm32f10x_i2c.c ****   * @}
 151:.\StdPeriphLib\src/stm32f10x_i2c.c ****   */
 152:.\StdPeriphLib\src/stm32f10x_i2c.c **** 
 153:.\StdPeriphLib\src/stm32f10x_i2c.c **** /** @defgroup I2C_Private_Functions
 154:.\StdPeriphLib\src/stm32f10x_i2c.c ****   * @{
 155:.\StdPeriphLib\src/stm32f10x_i2c.c ****   */
 156:.\StdPeriphLib\src/stm32f10x_i2c.c **** 
 157:.\StdPeriphLib\src/stm32f10x_i2c.c **** /**
 158:.\StdPeriphLib\src/stm32f10x_i2c.c ****   * @brief  Deinitializes the I2Cx peripheral registers to their default reset values.
 159:.\StdPeriphLib\src/stm32f10x_i2c.c ****   * @param  I2Cx: where x can be 1 or 2 to select the I2C peripheral.
 160:.\StdPeriphLib\src/stm32f10x_i2c.c ****   * @retval None
 161:.\StdPeriphLib\src/stm32f10x_i2c.c ****   */
 162:.\StdPeriphLib\src/stm32f10x_i2c.c **** void I2C_DeInit(I2C_TypeDef* I2Cx)
 163:.\StdPeriphLib\src/stm32f10x_i2c.c **** {
  27              		.loc 1 163 0
  28              		.cfi_startproc
  29              		@ args = 0, pretend = 0, frame = 0
  30              		@ frame_needed = 0, uses_anonymous_args = 0
  31              	.LVL0:
  32 0000 08B5     		push	{r3, lr}
  33              	.LCFI0:
  34              		.cfi_def_cfa_offset 8
  35              		.cfi_offset 3, -8
  36              		.cfi_offset 14, -4
 164:.\StdPeriphLib\src/stm32f10x_i2c.c ****   /* Check the parameters */
 165:.\StdPeriphLib\src/stm32f10x_i2c.c ****   assert_param(IS_I2C_ALL_PERIPH(I2Cx));
 166:.\StdPeriphLib\src/stm32f10x_i2c.c **** 
 167:.\StdPeriphLib\src/stm32f10x_i2c.c ****   if (I2Cx == I2C1)
  37              		.loc 1 167 0
  38 0002 0C4B     		ldr	r3, .L5
  39 0004 9842     		cmp	r0, r3
  40 0006 0AD1     		bne	.L2
 168:.\StdPeriphLib\src/stm32f10x_i2c.c ****   {
 169:.\StdPeriphLib\src/stm32f10x_i2c.c ****     /* Enable I2C1 reset state */
 170:.\StdPeriphLib\src/stm32f10x_i2c.c ****     RCC_APB1PeriphResetCmd(RCC_APB1Periph_I2C1, ENABLE);
  41              		.loc 1 170 0
  42 0008 4FF40010 		mov	r0, #2097152
  43              	.LVL1:
  44 000c 0121     		movs	r1, #1
  45 000e FFF7FEFF 		bl	RCC_APB1PeriphResetCmd
  46              	.LVL2:
 171:.\StdPeriphLib\src/stm32f10x_i2c.c ****     /* Release I2C1 from reset state */
 172:.\StdPeriphLib\src/stm32f10x_i2c.c ****     RCC_APB1PeriphResetCmd(RCC_APB1Periph_I2C1, DISABLE);
  47              		.loc 1 172 0
  48 0012 4FF40010 		mov	r0, #2097152
  49 0016 0021     		movs	r1, #0
  50 0018 FFF7FEFF 		bl	RCC_APB1PeriphResetCmd
  51              	.LVL3:
  52 001c 08BD     		pop	{r3, pc}
  53              	.LVL4:
  54              	.L2:
 173:.\StdPeriphLib\src/stm32f10x_i2c.c ****   }
 174:.\StdPeriphLib\src/stm32f10x_i2c.c ****   else
 175:.\StdPeriphLib\src/stm32f10x_i2c.c ****   {
 176:.\StdPeriphLib\src/stm32f10x_i2c.c ****     /* Enable I2C2 reset state */
 177:.\StdPeriphLib\src/stm32f10x_i2c.c ****     RCC_APB1PeriphResetCmd(RCC_APB1Periph_I2C2, ENABLE);
  55              		.loc 1 177 0
  56 001e 4FF48000 		mov	r0, #4194304
  57              	.LVL5:
  58 0022 0121     		movs	r1, #1
  59 0024 FFF7FEFF 		bl	RCC_APB1PeriphResetCmd
  60              	.LVL6:
 178:.\StdPeriphLib\src/stm32f10x_i2c.c ****     /* Release I2C2 from reset state */
 179:.\StdPeriphLib\src/stm32f10x_i2c.c ****     RCC_APB1PeriphResetCmd(RCC_APB1Periph_I2C2, DISABLE);
  61              		.loc 1 179 0
  62 0028 4FF48000 		mov	r0, #4194304
  63 002c 0021     		movs	r1, #0
  64 002e FFF7FEFF 		bl	RCC_APB1PeriphResetCmd
  65              	.LVL7:
  66 0032 08BD     		pop	{r3, pc}
  67              	.L6:
  68              		.align	2
  69              	.L5:
  70 0034 00540040 		.word	1073763328
  71              		.cfi_endproc
  72              	.LFE29:
  74              		.section	.text.I2C_Init,"ax",%progbits
  75              		.align	2
  76              		.global	I2C_Init
  77              		.thumb
  78              		.thumb_func
  80              	I2C_Init:
  81              	.LFB30:
 180:.\StdPeriphLib\src/stm32f10x_i2c.c ****   }
 181:.\StdPeriphLib\src/stm32f10x_i2c.c **** }
 182:.\StdPeriphLib\src/stm32f10x_i2c.c **** 
 183:.\StdPeriphLib\src/stm32f10x_i2c.c **** /**
 184:.\StdPeriphLib\src/stm32f10x_i2c.c ****   * @brief  Initializes the I2Cx peripheral according to the specified 
 185:.\StdPeriphLib\src/stm32f10x_i2c.c ****   *   parameters in the I2C_InitStruct.
 186:.\StdPeriphLib\src/stm32f10x_i2c.c ****   * @param  I2Cx: where x can be 1 or 2 to select the I2C peripheral.
 187:.\StdPeriphLib\src/stm32f10x_i2c.c ****   * @param  I2C_InitStruct: pointer to a I2C_InitTypeDef structure that
 188:.\StdPeriphLib\src/stm32f10x_i2c.c ****   *   contains the configuration information for the specified I2C peripheral.
 189:.\StdPeriphLib\src/stm32f10x_i2c.c ****   * @retval None
 190:.\StdPeriphLib\src/stm32f10x_i2c.c ****   */
 191:.\StdPeriphLib\src/stm32f10x_i2c.c **** void I2C_Init(I2C_TypeDef* I2Cx, I2C_InitTypeDef* I2C_InitStruct)
 192:.\StdPeriphLib\src/stm32f10x_i2c.c **** {
  82              		.loc 1 192 0
  83              		.cfi_startproc
  84              		@ args = 0, pretend = 0, frame = 24
  85              		@ frame_needed = 0, uses_anonymous_args = 0
  86              	.LVL8:
  87 0000 70B5     		push	{r4, r5, r6, lr}
  88              	.LCFI1:
  89              		.cfi_def_cfa_offset 16
  90              		.cfi_offset 4, -16
  91              		.cfi_offset 5, -12
  92              		.cfi_offset 6, -8
  93              		.cfi_offset 14, -4
  94 0002 86B0     		sub	sp, sp, #24
  95              	.LCFI2:
  96              		.cfi_def_cfa_offset 40
  97 0004 0446     		mov	r4, r0
  98 0006 0D46     		mov	r5, r1
  99              	.LVL9:
 193:.\StdPeriphLib\src/stm32f10x_i2c.c ****   uint16_t tmpreg = 0, freqrange = 0;
 194:.\StdPeriphLib\src/stm32f10x_i2c.c ****   uint16_t result = 0x04;
 195:.\StdPeriphLib\src/stm32f10x_i2c.c ****   uint32_t pclk1 = 8000000;
 196:.\StdPeriphLib\src/stm32f10x_i2c.c ****   RCC_ClocksTypeDef  rcc_clocks;
 197:.\StdPeriphLib\src/stm32f10x_i2c.c ****   /* Check the parameters */
 198:.\StdPeriphLib\src/stm32f10x_i2c.c ****   assert_param(IS_I2C_ALL_PERIPH(I2Cx));
 199:.\StdPeriphLib\src/stm32f10x_i2c.c ****   assert_param(IS_I2C_CLOCK_SPEED(I2C_InitStruct->I2C_ClockSpeed));
 200:.\StdPeriphLib\src/stm32f10x_i2c.c ****   assert_param(IS_I2C_MODE(I2C_InitStruct->I2C_Mode));
 201:.\StdPeriphLib\src/stm32f10x_i2c.c ****   assert_param(IS_I2C_DUTY_CYCLE(I2C_InitStruct->I2C_DutyCycle));
 202:.\StdPeriphLib\src/stm32f10x_i2c.c ****   assert_param(IS_I2C_OWN_ADDRESS1(I2C_InitStruct->I2C_OwnAddress1));
 203:.\StdPeriphLib\src/stm32f10x_i2c.c ****   assert_param(IS_I2C_ACK_STATE(I2C_InitStruct->I2C_Ack));
 204:.\StdPeriphLib\src/stm32f10x_i2c.c ****   assert_param(IS_I2C_ACKNOWLEDGE_ADDRESS(I2C_InitStruct->I2C_AcknowledgedAddress));
 205:.\StdPeriphLib\src/stm32f10x_i2c.c **** 
 206:.\StdPeriphLib\src/stm32f10x_i2c.c **** /*---------------------------- I2Cx CR2 Configuration ------------------------*/
 207:.\StdPeriphLib\src/stm32f10x_i2c.c ****   /* Get the I2Cx CR2 value */
 208:.\StdPeriphLib\src/stm32f10x_i2c.c ****   tmpreg = I2Cx->CR2;
 100              		.loc 1 208 0
 101 0008 8688     		ldrh	r6, [r0, #4]
 102              	.LVL10:
 209:.\StdPeriphLib\src/stm32f10x_i2c.c ****   /* Clear frequency FREQ[5:0] bits */
 210:.\StdPeriphLib\src/stm32f10x_i2c.c ****   tmpreg &= CR2_FREQ_Reset;
 103              		.loc 1 210 0
 104 000a 26F03F06 		bic	r6, r6, #63
 105              	.LVL11:
 106 000e 3604     		lsls	r6, r6, #16
 107 0010 360C     		lsrs	r6, r6, #16
 108              	.LVL12:
 211:.\StdPeriphLib\src/stm32f10x_i2c.c ****   /* Get pclk1 frequency value */
 212:.\StdPeriphLib\src/stm32f10x_i2c.c ****   RCC_GetClocksFreq(&rcc_clocks);
 109              		.loc 1 212 0
 110 0012 01A8     		add	r0, sp, #4
 111              	.LVL13:
 112 0014 FFF7FEFF 		bl	RCC_GetClocksFreq
 113              	.LVL14:
 213:.\StdPeriphLib\src/stm32f10x_i2c.c ****   pclk1 = rcc_clocks.PCLK1_Frequency;
 114              		.loc 1 213 0
 115 0018 0399     		ldr	r1, [sp, #12]
 116              	.LVL15:
 214:.\StdPeriphLib\src/stm32f10x_i2c.c ****   /* Set frequency bits depending on pclk1 value */
 215:.\StdPeriphLib\src/stm32f10x_i2c.c ****   freqrange = (uint16_t)(pclk1 / 1000000);
 117              		.loc 1 215 0
 118 001a 2E4B     		ldr	r3, .L15
 119 001c A3FB0123 		umull	r2, r3, r3, r1
 120 0020 9B0C     		lsrs	r3, r3, #18
 121 0022 98B2     		uxth	r0, r3
 122              	.LVL16:
 216:.\StdPeriphLib\src/stm32f10x_i2c.c ****   tmpreg |= freqrange;
 123              		.loc 1 216 0
 124 0024 0643     		orrs	r6, r6, r0
 125              	.LVL17:
 217:.\StdPeriphLib\src/stm32f10x_i2c.c ****   /* Write to I2Cx CR2 */
 218:.\StdPeriphLib\src/stm32f10x_i2c.c ****   I2Cx->CR2 = tmpreg;
 126              		.loc 1 218 0
 127 0026 A680     		strh	r6, [r4, #4]	@ movhi
 219:.\StdPeriphLib\src/stm32f10x_i2c.c **** 
 220:.\StdPeriphLib\src/stm32f10x_i2c.c **** /*---------------------------- I2Cx CCR Configuration ------------------------*/
 221:.\StdPeriphLib\src/stm32f10x_i2c.c ****   /* Disable the selected I2C peripheral to configure TRISE */
 222:.\StdPeriphLib\src/stm32f10x_i2c.c ****   I2Cx->CR1 &= CR1_PE_Reset;
 128              		.loc 1 222 0
 129 0028 2288     		ldrh	r2, [r4]
 130 002a 22F00102 		bic	r2, r2, #1
 131 002e 1204     		lsls	r2, r2, #16
 132 0030 120C     		lsrs	r2, r2, #16
 133 0032 2280     		strh	r2, [r4]	@ movhi
 134              	.LVL18:
 223:.\StdPeriphLib\src/stm32f10x_i2c.c ****   /* Reset tmpreg value */
 224:.\StdPeriphLib\src/stm32f10x_i2c.c ****   /* Clear F/S, DUTY and CCR[11:0] bits */
 225:.\StdPeriphLib\src/stm32f10x_i2c.c ****   tmpreg = 0;
 226:.\StdPeriphLib\src/stm32f10x_i2c.c **** 
 227:.\StdPeriphLib\src/stm32f10x_i2c.c ****   /* Configure speed in standard mode */
 228:.\StdPeriphLib\src/stm32f10x_i2c.c ****   if (I2C_InitStruct->I2C_ClockSpeed <= 100000)
 135              		.loc 1 228 0
 136 0034 2A68     		ldr	r2, [r5]
 137 0036 284E     		ldr	r6, .L15+4
 138 0038 B242     		cmp	r2, r6
 139 003a 09D8     		bhi	.L8
 229:.\StdPeriphLib\src/stm32f10x_i2c.c ****   {
 230:.\StdPeriphLib\src/stm32f10x_i2c.c ****     /* Standard mode speed calculate */
 231:.\StdPeriphLib\src/stm32f10x_i2c.c ****     result = (uint16_t)(pclk1 / (I2C_InitStruct->I2C_ClockSpeed << 1));
 140              		.loc 1 231 0
 141 003c 5200     		lsls	r2, r2, #1
 142 003e B1FBF2F2 		udiv	r2, r1, r2
 143              	.LVL19:
 232:.\StdPeriphLib\src/stm32f10x_i2c.c ****     /* Test if CCR value is under 0x4*/
 233:.\StdPeriphLib\src/stm32f10x_i2c.c ****     if (result < 0x04)
 144              		.loc 1 233 0
 145 0042 92B2     		uxth	r2, r2
 234:.\StdPeriphLib\src/stm32f10x_i2c.c ****     {
 235:.\StdPeriphLib\src/stm32f10x_i2c.c ****       /* Set minimum allowed value */
 236:.\StdPeriphLib\src/stm32f10x_i2c.c ****       result = 0x04;  
 146              		.loc 1 236 0
 147 0044 032A     		cmp	r2, #3
 148 0046 98BF     		it	ls
 149 0048 0422     		movls	r2, #4
 150              	.LVL20:
 237:.\StdPeriphLib\src/stm32f10x_i2c.c ****     }
 238:.\StdPeriphLib\src/stm32f10x_i2c.c ****     /* Set speed value for standard mode */
 239:.\StdPeriphLib\src/stm32f10x_i2c.c ****     tmpreg |= result;	  
 240:.\StdPeriphLib\src/stm32f10x_i2c.c ****     /* Set Maximum Rise Time for standard mode */
 241:.\StdPeriphLib\src/stm32f10x_i2c.c ****     I2Cx->TRISE = freqrange + 1; 
 151              		.loc 1 241 0
 152 004a 0130     		adds	r0, r0, #1
 153              	.LVL21:
 154 004c 2084     		strh	r0, [r4, #32]	@ movhi
 155 004e 27E0     		b	.L10
 156              	.LVL22:
 157              	.L8:
 242:.\StdPeriphLib\src/stm32f10x_i2c.c ****   }
 243:.\StdPeriphLib\src/stm32f10x_i2c.c ****   /* Configure speed in fast mode */
 244:.\StdPeriphLib\src/stm32f10x_i2c.c ****   else /*(I2C_InitStruct->I2C_ClockSpeed <= 400000)*/
 245:.\StdPeriphLib\src/stm32f10x_i2c.c ****   {
 246:.\StdPeriphLib\src/stm32f10x_i2c.c ****     if (I2C_InitStruct->I2C_DutyCycle == I2C_DutyCycle_2)
 158              		.loc 1 246 0
 159 0050 EE88     		ldrh	r6, [r5, #6]
 160 0052 4BF6FF70 		movw	r0, #49151
 161              	.LVL23:
 162 0056 8642     		cmp	r6, r0
 163 0058 05D1     		bne	.L11
 247:.\StdPeriphLib\src/stm32f10x_i2c.c ****     {
 248:.\StdPeriphLib\src/stm32f10x_i2c.c ****       /* Fast mode speed calculate: Tlow/Thigh = 2 */
 249:.\StdPeriphLib\src/stm32f10x_i2c.c ****       result = (uint16_t)(pclk1 / (I2C_InitStruct->I2C_ClockSpeed * 3));
 164              		.loc 1 249 0
 165 005a 02EB4202 		add	r2, r2, r2, lsl #1
 166 005e B1FBF2F2 		udiv	r2, r1, r2
 167 0062 92B2     		uxth	r2, r2
 168              	.LVL24:
 169 0064 08E0     		b	.L12
 170              	.LVL25:
 171              	.L11:
 250:.\StdPeriphLib\src/stm32f10x_i2c.c ****     }
 251:.\StdPeriphLib\src/stm32f10x_i2c.c ****     else /*I2C_InitStruct->I2C_DutyCycle == I2C_DutyCycle_16_9*/
 252:.\StdPeriphLib\src/stm32f10x_i2c.c ****     {
 253:.\StdPeriphLib\src/stm32f10x_i2c.c ****       /* Fast mode speed calculate: Tlow/Thigh = 16/9 */
 254:.\StdPeriphLib\src/stm32f10x_i2c.c ****       result = (uint16_t)(pclk1 / (I2C_InitStruct->I2C_ClockSpeed * 25));
 172              		.loc 1 254 0
 173 0066 02EB8202 		add	r2, r2, r2, lsl #2
 174 006a 02EB8202 		add	r2, r2, r2, lsl #2
 175 006e B1FBF2F2 		udiv	r2, r1, r2
 176 0072 92B2     		uxth	r2, r2
 177              	.LVL26:
 255:.\StdPeriphLib\src/stm32f10x_i2c.c ****       /* Set DUTY bit */
 256:.\StdPeriphLib\src/stm32f10x_i2c.c ****       result |= I2C_DutyCycle_16_9;
 178              		.loc 1 256 0
 179 0074 42F48042 		orr	r2, r2, #16384
 180              	.LVL27:
 181              	.L12:
 257:.\StdPeriphLib\src/stm32f10x_i2c.c ****     }
 258:.\StdPeriphLib\src/stm32f10x_i2c.c **** 
 259:.\StdPeriphLib\src/stm32f10x_i2c.c ****     /* Test if CCR value is under 0x1*/
 260:.\StdPeriphLib\src/stm32f10x_i2c.c ****     if ((result & CCR_CCR_Set) == 0)
 182              		.loc 1 260 0
 183 0078 C2F30B01 		ubfx	r1, r2, #0, #12
 184              	.LVL28:
 185 007c 09B9     		cbnz	r1, .L13
 261:.\StdPeriphLib\src/stm32f10x_i2c.c ****     {
 262:.\StdPeriphLib\src/stm32f10x_i2c.c ****       /* Set minimum allowed value */
 263:.\StdPeriphLib\src/stm32f10x_i2c.c ****       result |= (uint16_t)0x0001;  
 186              		.loc 1 263 0
 187 007e 42F00102 		orr	r2, r2, #1
 188              	.LVL29:
 189              	.L13:
 264:.\StdPeriphLib\src/stm32f10x_i2c.c ****     }
 265:.\StdPeriphLib\src/stm32f10x_i2c.c ****     /* Set speed value and set F/S bit for fast mode */
 266:.\StdPeriphLib\src/stm32f10x_i2c.c ****     tmpreg |= (uint16_t)(result | CCR_FS_Set);
 190              		.loc 1 266 0
 191 0082 42F40042 		orr	r2, r2, #32768
 192              	.LVL30:
 267:.\StdPeriphLib\src/stm32f10x_i2c.c ****     /* Set Maximum Rise Time for fast mode */
 268:.\StdPeriphLib\src/stm32f10x_i2c.c ****     I2Cx->TRISE = (uint16_t)(((freqrange * (uint16_t)300) / (uint16_t)1000) + (uint16_t)1);  
 193              		.loc 1 268 0
 194 0086 4FF49671 		mov	r1, #300
 195 008a 03FB01F3 		mul	r3, r3, r1
 196              	.LVL31:
 197 008e 1349     		ldr	r1, .L15+8
 198 0090 81FB0301 		smull	r0, r1, r1, r3
 199 0094 DB17     		asrs	r3, r3, #31
 200 0096 C3EBA113 		rsb	r3, r3, r1, asr #6
 201 009a 0133     		adds	r3, r3, #1
 202 009c 9BB2     		uxth	r3, r3
 203 009e 2384     		strh	r3, [r4, #32]	@ movhi
 204              	.L10:
 269:.\StdPeriphLib\src/stm32f10x_i2c.c ****   }
 270:.\StdPeriphLib\src/stm32f10x_i2c.c **** 
 271:.\StdPeriphLib\src/stm32f10x_i2c.c ****   /* Write to I2Cx CCR */
 272:.\StdPeriphLib\src/stm32f10x_i2c.c ****   I2Cx->CCR = tmpreg;
 205              		.loc 1 272 0
 206 00a0 A283     		strh	r2, [r4, #28]	@ movhi
 273:.\StdPeriphLib\src/stm32f10x_i2c.c ****   /* Enable the selected I2C peripheral */
 274:.\StdPeriphLib\src/stm32f10x_i2c.c ****   I2Cx->CR1 |= CR1_PE_Set;
 207              		.loc 1 274 0
 208 00a2 2388     		ldrh	r3, [r4]
 209 00a4 9BB2     		uxth	r3, r3
 210 00a6 43F00103 		orr	r3, r3, #1
 211 00aa 2380     		strh	r3, [r4]	@ movhi
 275:.\StdPeriphLib\src/stm32f10x_i2c.c **** 
 276:.\StdPeriphLib\src/stm32f10x_i2c.c **** /*---------------------------- I2Cx CR1 Configuration ------------------------*/
 277:.\StdPeriphLib\src/stm32f10x_i2c.c ****   /* Get the I2Cx CR1 value */
 278:.\StdPeriphLib\src/stm32f10x_i2c.c ****   tmpreg = I2Cx->CR1;
 212              		.loc 1 278 0
 213 00ac 2388     		ldrh	r3, [r4]
 214 00ae 9BB2     		uxth	r3, r3
 215              	.LVL32:
 279:.\StdPeriphLib\src/stm32f10x_i2c.c ****   /* Clear ACK, SMBTYPE and  SMBUS bits */
 280:.\StdPeriphLib\src/stm32f10x_i2c.c ****   tmpreg &= CR1_CLEAR_Mask;
 216              		.loc 1 280 0
 217 00b0 23F48163 		bic	r3, r3, #1032
 218              	.LVL33:
 219 00b4 23F00201 		bic	r1, r3, #2
 220              	.LVL34:
 281:.\StdPeriphLib\src/stm32f10x_i2c.c ****   /* Configure I2Cx: mode and acknowledgement */
 282:.\StdPeriphLib\src/stm32f10x_i2c.c ****   /* Set SMBTYPE and SMBUS bits according to I2C_Mode value */
 283:.\StdPeriphLib\src/stm32f10x_i2c.c ****   /* Set ACK bit according to I2C_Ack value */
 284:.\StdPeriphLib\src/stm32f10x_i2c.c ****   tmpreg |= (uint16_t)((uint32_t)I2C_InitStruct->I2C_Mode | I2C_InitStruct->I2C_Ack);
 221              		.loc 1 284 0
 222 00b8 6B89     		ldrh	r3, [r5, #10]
 223 00ba AA88     		ldrh	r2, [r5, #4]
 224 00bc 1343     		orrs	r3, r3, r2
 225 00be 0B43     		orrs	r3, r3, r1
 226 00c0 9BB2     		uxth	r3, r3
 227              	.LVL35:
 285:.\StdPeriphLib\src/stm32f10x_i2c.c ****   /* Write to I2Cx CR1 */
 286:.\StdPeriphLib\src/stm32f10x_i2c.c ****   I2Cx->CR1 = tmpreg;
 228              		.loc 1 286 0
 229 00c2 2380     		strh	r3, [r4]	@ movhi
 287:.\StdPeriphLib\src/stm32f10x_i2c.c **** 
 288:.\StdPeriphLib\src/stm32f10x_i2c.c **** /*---------------------------- I2Cx OAR1 Configuration -----------------------*/
 289:.\StdPeriphLib\src/stm32f10x_i2c.c ****   /* Set I2Cx Own Address1 and acknowledged address */
 290:.\StdPeriphLib\src/stm32f10x_i2c.c ****   I2Cx->OAR1 = (I2C_InitStruct->I2C_AcknowledgedAddress | I2C_InitStruct->I2C_OwnAddress1);
 230              		.loc 1 290 0
 231 00c4 2A89     		ldrh	r2, [r5, #8]
 232 00c6 AB89     		ldrh	r3, [r5, #12]
 233              	.LVL36:
 234 00c8 1343     		orrs	r3, r3, r2
 235 00ca 9BB2     		uxth	r3, r3
 236 00cc 2381     		strh	r3, [r4, #8]	@ movhi
 237              	.LVL37:
 291:.\StdPeriphLib\src/stm32f10x_i2c.c **** }
 238              		.loc 1 291 0
 239 00ce 06B0     		add	sp, sp, #24
 240              	.LCFI3:
 241              		.cfi_def_cfa_offset 16
 242              		@ sp needed
 243 00d0 70BD     		pop	{r4, r5, r6, pc}
 244              	.LVL38:
 245              	.L16:
 246 00d2 00BF     		.align	2
 247              	.L15:
 248 00d4 83DE1B43 		.word	1125899907
 249 00d8 A0860100 		.word	100000
 250 00dc D34D6210 		.word	274877907
 251              		.cfi_endproc
 252              	.LFE30:
 254              		.section	.text.I2C_StructInit,"ax",%progbits
 255              		.align	2
 256              		.global	I2C_StructInit
 257              		.thumb
 258              		.thumb_func
 260              	I2C_StructInit:
 261              	.LFB31:
 292:.\StdPeriphLib\src/stm32f10x_i2c.c **** 
 293:.\StdPeriphLib\src/stm32f10x_i2c.c **** /**
 294:.\StdPeriphLib\src/stm32f10x_i2c.c ****   * @brief  Fills each I2C_InitStruct member with its default value.
 295:.\StdPeriphLib\src/stm32f10x_i2c.c ****   * @param  I2C_InitStruct: pointer to an I2C_InitTypeDef structure which will be initialized.
 296:.\StdPeriphLib\src/stm32f10x_i2c.c ****   * @retval None
 297:.\StdPeriphLib\src/stm32f10x_i2c.c ****   */
 298:.\StdPeriphLib\src/stm32f10x_i2c.c **** void I2C_StructInit(I2C_InitTypeDef* I2C_InitStruct)
 299:.\StdPeriphLib\src/stm32f10x_i2c.c **** {
 262              		.loc 1 299 0
 263              		.cfi_startproc
 264              		@ args = 0, pretend = 0, frame = 0
 265              		@ frame_needed = 0, uses_anonymous_args = 0
 266              		@ link register save eliminated.
 267              	.LVL39:
 300:.\StdPeriphLib\src/stm32f10x_i2c.c **** /*---------------- Reset I2C init structure parameters values ----------------*/
 301:.\StdPeriphLib\src/stm32f10x_i2c.c ****   /* initialize the I2C_ClockSpeed member */
 302:.\StdPeriphLib\src/stm32f10x_i2c.c ****   I2C_InitStruct->I2C_ClockSpeed = 5000;
 268              		.loc 1 302 0
 269 0000 41F28833 		movw	r3, #5000
 270 0004 0360     		str	r3, [r0]
 303:.\StdPeriphLib\src/stm32f10x_i2c.c ****   /* Initialize the I2C_Mode member */
 304:.\StdPeriphLib\src/stm32f10x_i2c.c ****   I2C_InitStruct->I2C_Mode = I2C_Mode_I2C;
 271              		.loc 1 304 0
 272 0006 0023     		movs	r3, #0
 273 0008 8380     		strh	r3, [r0, #4]	@ movhi
 305:.\StdPeriphLib\src/stm32f10x_i2c.c ****   /* Initialize the I2C_DutyCycle member */
 306:.\StdPeriphLib\src/stm32f10x_i2c.c ****   I2C_InitStruct->I2C_DutyCycle = I2C_DutyCycle_2;
 274              		.loc 1 306 0
 275 000a 4BF6FF72 		movw	r2, #49151
 276 000e C280     		strh	r2, [r0, #6]	@ movhi
 307:.\StdPeriphLib\src/stm32f10x_i2c.c ****   /* Initialize the I2C_OwnAddress1 member */
 308:.\StdPeriphLib\src/stm32f10x_i2c.c ****   I2C_InitStruct->I2C_OwnAddress1 = 0;
 277              		.loc 1 308 0
 278 0010 0381     		strh	r3, [r0, #8]	@ movhi
 309:.\StdPeriphLib\src/stm32f10x_i2c.c ****   /* Initialize the I2C_Ack member */
 310:.\StdPeriphLib\src/stm32f10x_i2c.c ****   I2C_InitStruct->I2C_Ack = I2C_Ack_Disable;
 279              		.loc 1 310 0
 280 0012 4381     		strh	r3, [r0, #10]	@ movhi
 311:.\StdPeriphLib\src/stm32f10x_i2c.c ****   /* Initialize the I2C_AcknowledgedAddress member */
 312:.\StdPeriphLib\src/stm32f10x_i2c.c ****   I2C_InitStruct->I2C_AcknowledgedAddress = I2C_AcknowledgedAddress_7bit;
 281              		.loc 1 312 0
 282 0014 4FF48043 		mov	r3, #16384
 283 0018 8381     		strh	r3, [r0, #12]	@ movhi
 284 001a 7047     		bx	lr
 285              		.cfi_endproc
 286              	.LFE31:
 288              		.section	.text.I2C_Cmd,"ax",%progbits
 289              		.align	2
 290              		.global	I2C_Cmd
 291              		.thumb
 292              		.thumb_func
 294              	I2C_Cmd:
 295              	.LFB32:
 313:.\StdPeriphLib\src/stm32f10x_i2c.c **** }
 314:.\StdPeriphLib\src/stm32f10x_i2c.c **** 
 315:.\StdPeriphLib\src/stm32f10x_i2c.c **** /**
 316:.\StdPeriphLib\src/stm32f10x_i2c.c ****   * @brief  Enables or disables the specified I2C peripheral.
 317:.\StdPeriphLib\src/stm32f10x_i2c.c ****   * @param  I2Cx: where x can be 1 or 2 to select the I2C peripheral.
 318:.\StdPeriphLib\src/stm32f10x_i2c.c ****   * @param  NewState: new state of the I2Cx peripheral. 
 319:.\StdPeriphLib\src/stm32f10x_i2c.c ****   *   This parameter can be: ENABLE or DISABLE.
 320:.\StdPeriphLib\src/stm32f10x_i2c.c ****   * @retval None
 321:.\StdPeriphLib\src/stm32f10x_i2c.c ****   */
 322:.\StdPeriphLib\src/stm32f10x_i2c.c **** void I2C_Cmd(I2C_TypeDef* I2Cx, FunctionalState NewState)
 323:.\StdPeriphLib\src/stm32f10x_i2c.c **** {
 296              		.loc 1 323 0
 297              		.cfi_startproc
 298              		@ args = 0, pretend = 0, frame = 0
 299              		@ frame_needed = 0, uses_anonymous_args = 0
 300              		@ link register save eliminated.
 301              	.LVL40:
 324:.\StdPeriphLib\src/stm32f10x_i2c.c ****   /* Check the parameters */
 325:.\StdPeriphLib\src/stm32f10x_i2c.c ****   assert_param(IS_I2C_ALL_PERIPH(I2Cx));
 326:.\StdPeriphLib\src/stm32f10x_i2c.c ****   assert_param(IS_FUNCTIONAL_STATE(NewState));
 327:.\StdPeriphLib\src/stm32f10x_i2c.c ****   if (NewState != DISABLE)
 302              		.loc 1 327 0
 303 0000 29B1     		cbz	r1, .L19
 328:.\StdPeriphLib\src/stm32f10x_i2c.c ****   {
 329:.\StdPeriphLib\src/stm32f10x_i2c.c ****     /* Enable the selected I2C peripheral */
 330:.\StdPeriphLib\src/stm32f10x_i2c.c ****     I2Cx->CR1 |= CR1_PE_Set;
 304              		.loc 1 330 0
 305 0002 0388     		ldrh	r3, [r0]
 306 0004 9BB2     		uxth	r3, r3
 307 0006 43F00103 		orr	r3, r3, #1
 308 000a 0380     		strh	r3, [r0]	@ movhi
 309 000c 7047     		bx	lr
 310              	.L19:
 331:.\StdPeriphLib\src/stm32f10x_i2c.c ****   }
 332:.\StdPeriphLib\src/stm32f10x_i2c.c ****   else
 333:.\StdPeriphLib\src/stm32f10x_i2c.c ****   {
 334:.\StdPeriphLib\src/stm32f10x_i2c.c ****     /* Disable the selected I2C peripheral */
 335:.\StdPeriphLib\src/stm32f10x_i2c.c ****     I2Cx->CR1 &= CR1_PE_Reset;
 311              		.loc 1 335 0
 312 000e 0388     		ldrh	r3, [r0]
 313 0010 23F00103 		bic	r3, r3, #1
 314 0014 1B04     		lsls	r3, r3, #16
 315 0016 1B0C     		lsrs	r3, r3, #16
 316 0018 0380     		strh	r3, [r0]	@ movhi
 317 001a 7047     		bx	lr
 318              		.cfi_endproc
 319              	.LFE32:
 321              		.section	.text.I2C_DMACmd,"ax",%progbits
 322              		.align	2
 323              		.global	I2C_DMACmd
 324              		.thumb
 325              		.thumb_func
 327              	I2C_DMACmd:
 328              	.LFB33:
 336:.\StdPeriphLib\src/stm32f10x_i2c.c ****   }
 337:.\StdPeriphLib\src/stm32f10x_i2c.c **** }
 338:.\StdPeriphLib\src/stm32f10x_i2c.c **** 
 339:.\StdPeriphLib\src/stm32f10x_i2c.c **** /**
 340:.\StdPeriphLib\src/stm32f10x_i2c.c ****   * @brief  Enables or disables the specified I2C DMA requests.
 341:.\StdPeriphLib\src/stm32f10x_i2c.c ****   * @param  I2Cx: where x can be 1 or 2 to select the I2C peripheral.
 342:.\StdPeriphLib\src/stm32f10x_i2c.c ****   * @param  NewState: new state of the I2C DMA transfer.
 343:.\StdPeriphLib\src/stm32f10x_i2c.c ****   *   This parameter can be: ENABLE or DISABLE.
 344:.\StdPeriphLib\src/stm32f10x_i2c.c ****   * @retval None
 345:.\StdPeriphLib\src/stm32f10x_i2c.c ****   */
 346:.\StdPeriphLib\src/stm32f10x_i2c.c **** void I2C_DMACmd(I2C_TypeDef* I2Cx, FunctionalState NewState)
 347:.\StdPeriphLib\src/stm32f10x_i2c.c **** {
 329              		.loc 1 347 0
 330              		.cfi_startproc
 331              		@ args = 0, pretend = 0, frame = 0
 332              		@ frame_needed = 0, uses_anonymous_args = 0
 333              		@ link register save eliminated.
 334              	.LVL41:
 348:.\StdPeriphLib\src/stm32f10x_i2c.c ****   /* Check the parameters */
 349:.\StdPeriphLib\src/stm32f10x_i2c.c ****   assert_param(IS_I2C_ALL_PERIPH(I2Cx));
 350:.\StdPeriphLib\src/stm32f10x_i2c.c ****   assert_param(IS_FUNCTIONAL_STATE(NewState));
 351:.\StdPeriphLib\src/stm32f10x_i2c.c ****   if (NewState != DISABLE)
 335              		.loc 1 351 0
 336 0000 29B1     		cbz	r1, .L22
 352:.\StdPeriphLib\src/stm32f10x_i2c.c ****   {
 353:.\StdPeriphLib\src/stm32f10x_i2c.c ****     /* Enable the selected I2C DMA requests */
 354:.\StdPeriphLib\src/stm32f10x_i2c.c ****     I2Cx->CR2 |= CR2_DMAEN_Set;
 337              		.loc 1 354 0
 338 0002 8388     		ldrh	r3, [r0, #4]
 339 0004 9BB2     		uxth	r3, r3
 340 0006 43F40063 		orr	r3, r3, #2048
 341 000a 8380     		strh	r3, [r0, #4]	@ movhi
 342 000c 7047     		bx	lr
 343              	.L22:
 355:.\StdPeriphLib\src/stm32f10x_i2c.c ****   }
 356:.\StdPeriphLib\src/stm32f10x_i2c.c ****   else
 357:.\StdPeriphLib\src/stm32f10x_i2c.c ****   {
 358:.\StdPeriphLib\src/stm32f10x_i2c.c ****     /* Disable the selected I2C DMA requests */
 359:.\StdPeriphLib\src/stm32f10x_i2c.c ****     I2Cx->CR2 &= CR2_DMAEN_Reset;
 344              		.loc 1 359 0
 345 000e 8388     		ldrh	r3, [r0, #4]
 346 0010 23F40063 		bic	r3, r3, #2048
 347 0014 1B04     		lsls	r3, r3, #16
 348 0016 1B0C     		lsrs	r3, r3, #16
 349 0018 8380     		strh	r3, [r0, #4]	@ movhi
 350 001a 7047     		bx	lr
 351              		.cfi_endproc
 352              	.LFE33:
 354              		.section	.text.I2C_DMALastTransferCmd,"ax",%progbits
 355              		.align	2
 356              		.global	I2C_DMALastTransferCmd
 357              		.thumb
 358              		.thumb_func
 360              	I2C_DMALastTransferCmd:
 361              	.LFB34:
 360:.\StdPeriphLib\src/stm32f10x_i2c.c ****   }
 361:.\StdPeriphLib\src/stm32f10x_i2c.c **** }
 362:.\StdPeriphLib\src/stm32f10x_i2c.c **** 
 363:.\StdPeriphLib\src/stm32f10x_i2c.c **** /**
 364:.\StdPeriphLib\src/stm32f10x_i2c.c ****   * @brief  Specifies if the next DMA transfer will be the last one.
 365:.\StdPeriphLib\src/stm32f10x_i2c.c ****   * @param  I2Cx: where x can be 1 or 2 to select the I2C peripheral.
 366:.\StdPeriphLib\src/stm32f10x_i2c.c ****   * @param  NewState: new state of the I2C DMA last transfer.
 367:.\StdPeriphLib\src/stm32f10x_i2c.c ****   *   This parameter can be: ENABLE or DISABLE.
 368:.\StdPeriphLib\src/stm32f10x_i2c.c ****   * @retval None
 369:.\StdPeriphLib\src/stm32f10x_i2c.c ****   */
 370:.\StdPeriphLib\src/stm32f10x_i2c.c **** void I2C_DMALastTransferCmd(I2C_TypeDef* I2Cx, FunctionalState NewState)
 371:.\StdPeriphLib\src/stm32f10x_i2c.c **** {
 362              		.loc 1 371 0
 363              		.cfi_startproc
 364              		@ args = 0, pretend = 0, frame = 0
 365              		@ frame_needed = 0, uses_anonymous_args = 0
 366              		@ link register save eliminated.
 367              	.LVL42:
 372:.\StdPeriphLib\src/stm32f10x_i2c.c ****   /* Check the parameters */
 373:.\StdPeriphLib\src/stm32f10x_i2c.c ****   assert_param(IS_I2C_ALL_PERIPH(I2Cx));
 374:.\StdPeriphLib\src/stm32f10x_i2c.c ****   assert_param(IS_FUNCTIONAL_STATE(NewState));
 375:.\StdPeriphLib\src/stm32f10x_i2c.c ****   if (NewState != DISABLE)
 368              		.loc 1 375 0
 369 0000 29B1     		cbz	r1, .L25
 376:.\StdPeriphLib\src/stm32f10x_i2c.c ****   {
 377:.\StdPeriphLib\src/stm32f10x_i2c.c ****     /* Next DMA transfer is the last transfer */
 378:.\StdPeriphLib\src/stm32f10x_i2c.c ****     I2Cx->CR2 |= CR2_LAST_Set;
 370              		.loc 1 378 0
 371 0002 8388     		ldrh	r3, [r0, #4]
 372 0004 9BB2     		uxth	r3, r3
 373 0006 43F48053 		orr	r3, r3, #4096
 374 000a 8380     		strh	r3, [r0, #4]	@ movhi
 375 000c 7047     		bx	lr
 376              	.L25:
 379:.\StdPeriphLib\src/stm32f10x_i2c.c ****   }
 380:.\StdPeriphLib\src/stm32f10x_i2c.c ****   else
 381:.\StdPeriphLib\src/stm32f10x_i2c.c ****   {
 382:.\StdPeriphLib\src/stm32f10x_i2c.c ****     /* Next DMA transfer is not the last transfer */
 383:.\StdPeriphLib\src/stm32f10x_i2c.c ****     I2Cx->CR2 &= CR2_LAST_Reset;
 377              		.loc 1 383 0
 378 000e 8388     		ldrh	r3, [r0, #4]
 379 0010 23F48053 		bic	r3, r3, #4096
 380 0014 1B04     		lsls	r3, r3, #16
 381 0016 1B0C     		lsrs	r3, r3, #16
 382 0018 8380     		strh	r3, [r0, #4]	@ movhi
 383 001a 7047     		bx	lr
 384              		.cfi_endproc
 385              	.LFE34:
 387              		.section	.text.I2C_GenerateSTART,"ax",%progbits
 388              		.align	2
 389              		.global	I2C_GenerateSTART
 390              		.thumb
 391              		.thumb_func
 393              	I2C_GenerateSTART:
 394              	.LFB35:
 384:.\StdPeriphLib\src/stm32f10x_i2c.c ****   }
 385:.\StdPeriphLib\src/stm32f10x_i2c.c **** }
 386:.\StdPeriphLib\src/stm32f10x_i2c.c **** 
 387:.\StdPeriphLib\src/stm32f10x_i2c.c **** /**
 388:.\StdPeriphLib\src/stm32f10x_i2c.c ****   * @brief  Generates I2Cx communication START condition.
 389:.\StdPeriphLib\src/stm32f10x_i2c.c ****   * @param  I2Cx: where x can be 1 or 2 to select the I2C peripheral.
 390:.\StdPeriphLib\src/stm32f10x_i2c.c ****   * @param  NewState: new state of the I2C START condition generation.
 391:.\StdPeriphLib\src/stm32f10x_i2c.c ****   *   This parameter can be: ENABLE or DISABLE.
 392:.\StdPeriphLib\src/stm32f10x_i2c.c ****   * @retval None.
 393:.\StdPeriphLib\src/stm32f10x_i2c.c ****   */
 394:.\StdPeriphLib\src/stm32f10x_i2c.c **** void I2C_GenerateSTART(I2C_TypeDef* I2Cx, FunctionalState NewState)
 395:.\StdPeriphLib\src/stm32f10x_i2c.c **** {
 395              		.loc 1 395 0
 396              		.cfi_startproc
 397              		@ args = 0, pretend = 0, frame = 0
 398              		@ frame_needed = 0, uses_anonymous_args = 0
 399              		@ link register save eliminated.
 400              	.LVL43:
 396:.\StdPeriphLib\src/stm32f10x_i2c.c ****   /* Check the parameters */
 397:.\StdPeriphLib\src/stm32f10x_i2c.c ****   assert_param(IS_I2C_ALL_PERIPH(I2Cx));
 398:.\StdPeriphLib\src/stm32f10x_i2c.c ****   assert_param(IS_FUNCTIONAL_STATE(NewState));
 399:.\StdPeriphLib\src/stm32f10x_i2c.c ****   if (NewState != DISABLE)
 401              		.loc 1 399 0
 402 0000 29B1     		cbz	r1, .L28
 400:.\StdPeriphLib\src/stm32f10x_i2c.c ****   {
 401:.\StdPeriphLib\src/stm32f10x_i2c.c ****     /* Generate a START condition */
 402:.\StdPeriphLib\src/stm32f10x_i2c.c ****     I2Cx->CR1 |= CR1_START_Set;
 403              		.loc 1 402 0
 404 0002 0388     		ldrh	r3, [r0]
 405 0004 9BB2     		uxth	r3, r3
 406 0006 43F48073 		orr	r3, r3, #256
 407 000a 0380     		strh	r3, [r0]	@ movhi
 408 000c 7047     		bx	lr
 409              	.L28:
 403:.\StdPeriphLib\src/stm32f10x_i2c.c ****   }
 404:.\StdPeriphLib\src/stm32f10x_i2c.c ****   else
 405:.\StdPeriphLib\src/stm32f10x_i2c.c ****   {
 406:.\StdPeriphLib\src/stm32f10x_i2c.c ****     /* Disable the START condition generation */
 407:.\StdPeriphLib\src/stm32f10x_i2c.c ****     I2Cx->CR1 &= CR1_START_Reset;
 410              		.loc 1 407 0
 411 000e 0388     		ldrh	r3, [r0]
 412 0010 23F48073 		bic	r3, r3, #256
 413 0014 1B04     		lsls	r3, r3, #16
 414 0016 1B0C     		lsrs	r3, r3, #16
 415 0018 0380     		strh	r3, [r0]	@ movhi
 416 001a 7047     		bx	lr
 417              		.cfi_endproc
 418              	.LFE35:
 420              		.section	.text.I2C_GenerateSTOP,"ax",%progbits
 421              		.align	2
 422              		.global	I2C_GenerateSTOP
 423              		.thumb
 424              		.thumb_func
 426              	I2C_GenerateSTOP:
 427              	.LFB36:
 408:.\StdPeriphLib\src/stm32f10x_i2c.c ****   }
 409:.\StdPeriphLib\src/stm32f10x_i2c.c **** }
 410:.\StdPeriphLib\src/stm32f10x_i2c.c **** 
 411:.\StdPeriphLib\src/stm32f10x_i2c.c **** /**
 412:.\StdPeriphLib\src/stm32f10x_i2c.c ****   * @brief  Generates I2Cx communication STOP condition.
 413:.\StdPeriphLib\src/stm32f10x_i2c.c ****   * @param  I2Cx: where x can be 1 or 2 to select the I2C peripheral.
 414:.\StdPeriphLib\src/stm32f10x_i2c.c ****   * @param  NewState: new state of the I2C STOP condition generation.
 415:.\StdPeriphLib\src/stm32f10x_i2c.c ****   *   This parameter can be: ENABLE or DISABLE.
 416:.\StdPeriphLib\src/stm32f10x_i2c.c ****   * @retval None.
 417:.\StdPeriphLib\src/stm32f10x_i2c.c ****   */
 418:.\StdPeriphLib\src/stm32f10x_i2c.c **** void I2C_GenerateSTOP(I2C_TypeDef* I2Cx, FunctionalState NewState)
 419:.\StdPeriphLib\src/stm32f10x_i2c.c **** {
 428              		.loc 1 419 0
 429              		.cfi_startproc
 430              		@ args = 0, pretend = 0, frame = 0
 431              		@ frame_needed = 0, uses_anonymous_args = 0
 432              		@ link register save eliminated.
 433              	.LVL44:
 420:.\StdPeriphLib\src/stm32f10x_i2c.c ****   /* Check the parameters */
 421:.\StdPeriphLib\src/stm32f10x_i2c.c ****   assert_param(IS_I2C_ALL_PERIPH(I2Cx));
 422:.\StdPeriphLib\src/stm32f10x_i2c.c ****   assert_param(IS_FUNCTIONAL_STATE(NewState));
 423:.\StdPeriphLib\src/stm32f10x_i2c.c ****   if (NewState != DISABLE)
 434              		.loc 1 423 0
 435 0000 29B1     		cbz	r1, .L31
 424:.\StdPeriphLib\src/stm32f10x_i2c.c ****   {
 425:.\StdPeriphLib\src/stm32f10x_i2c.c ****     /* Generate a STOP condition */
 426:.\StdPeriphLib\src/stm32f10x_i2c.c ****     I2Cx->CR1 |= CR1_STOP_Set;
 436              		.loc 1 426 0
 437 0002 0388     		ldrh	r3, [r0]
 438 0004 9BB2     		uxth	r3, r3
 439 0006 43F40073 		orr	r3, r3, #512
 440 000a 0380     		strh	r3, [r0]	@ movhi
 441 000c 7047     		bx	lr
 442              	.L31:
 427:.\StdPeriphLib\src/stm32f10x_i2c.c ****   }
 428:.\StdPeriphLib\src/stm32f10x_i2c.c ****   else
 429:.\StdPeriphLib\src/stm32f10x_i2c.c ****   {
 430:.\StdPeriphLib\src/stm32f10x_i2c.c ****     /* Disable the STOP condition generation */
 431:.\StdPeriphLib\src/stm32f10x_i2c.c ****     I2Cx->CR1 &= CR1_STOP_Reset;
 443              		.loc 1 431 0
 444 000e 0388     		ldrh	r3, [r0]
 445 0010 23F40073 		bic	r3, r3, #512
 446 0014 1B04     		lsls	r3, r3, #16
 447 0016 1B0C     		lsrs	r3, r3, #16
 448 0018 0380     		strh	r3, [r0]	@ movhi
 449 001a 7047     		bx	lr
 450              		.cfi_endproc
 451              	.LFE36:
 453              		.section	.text.I2C_AcknowledgeConfig,"ax",%progbits
 454              		.align	2
 455              		.global	I2C_AcknowledgeConfig
 456              		.thumb
 457              		.thumb_func
 459              	I2C_AcknowledgeConfig:
 460              	.LFB37:
 432:.\StdPeriphLib\src/stm32f10x_i2c.c ****   }
 433:.\StdPeriphLib\src/stm32f10x_i2c.c **** }
 434:.\StdPeriphLib\src/stm32f10x_i2c.c **** 
 435:.\StdPeriphLib\src/stm32f10x_i2c.c **** /**
 436:.\StdPeriphLib\src/stm32f10x_i2c.c ****   * @brief  Enables or disables the specified I2C acknowledge feature.
 437:.\StdPeriphLib\src/stm32f10x_i2c.c ****   * @param  I2Cx: where x can be 1 or 2 to select the I2C peripheral.
 438:.\StdPeriphLib\src/stm32f10x_i2c.c ****   * @param  NewState: new state of the I2C Acknowledgement.
 439:.\StdPeriphLib\src/stm32f10x_i2c.c ****   *   This parameter can be: ENABLE or DISABLE.
 440:.\StdPeriphLib\src/stm32f10x_i2c.c ****   * @retval None.
 441:.\StdPeriphLib\src/stm32f10x_i2c.c ****   */
 442:.\StdPeriphLib\src/stm32f10x_i2c.c **** void I2C_AcknowledgeConfig(I2C_TypeDef* I2Cx, FunctionalState NewState)
 443:.\StdPeriphLib\src/stm32f10x_i2c.c **** {
 461              		.loc 1 443 0
 462              		.cfi_startproc
 463              		@ args = 0, pretend = 0, frame = 0
 464              		@ frame_needed = 0, uses_anonymous_args = 0
 465              		@ link register save eliminated.
 466              	.LVL45:
 444:.\StdPeriphLib\src/stm32f10x_i2c.c ****   /* Check the parameters */
 445:.\StdPeriphLib\src/stm32f10x_i2c.c ****   assert_param(IS_I2C_ALL_PERIPH(I2Cx));
 446:.\StdPeriphLib\src/stm32f10x_i2c.c ****   assert_param(IS_FUNCTIONAL_STATE(NewState));
 447:.\StdPeriphLib\src/stm32f10x_i2c.c ****   if (NewState != DISABLE)
 467              		.loc 1 447 0
 468 0000 29B1     		cbz	r1, .L34
 448:.\StdPeriphLib\src/stm32f10x_i2c.c ****   {
 449:.\StdPeriphLib\src/stm32f10x_i2c.c ****     /* Enable the acknowledgement */
 450:.\StdPeriphLib\src/stm32f10x_i2c.c ****     I2Cx->CR1 |= CR1_ACK_Set;
 469              		.loc 1 450 0
 470 0002 0388     		ldrh	r3, [r0]
 471 0004 9BB2     		uxth	r3, r3
 472 0006 43F48063 		orr	r3, r3, #1024
 473 000a 0380     		strh	r3, [r0]	@ movhi
 474 000c 7047     		bx	lr
 475              	.L34:
 451:.\StdPeriphLib\src/stm32f10x_i2c.c ****   }
 452:.\StdPeriphLib\src/stm32f10x_i2c.c ****   else
 453:.\StdPeriphLib\src/stm32f10x_i2c.c ****   {
 454:.\StdPeriphLib\src/stm32f10x_i2c.c ****     /* Disable the acknowledgement */
 455:.\StdPeriphLib\src/stm32f10x_i2c.c ****     I2Cx->CR1 &= CR1_ACK_Reset;
 476              		.loc 1 455 0
 477 000e 0388     		ldrh	r3, [r0]
 478 0010 23F48063 		bic	r3, r3, #1024
 479 0014 1B04     		lsls	r3, r3, #16
 480 0016 1B0C     		lsrs	r3, r3, #16
 481 0018 0380     		strh	r3, [r0]	@ movhi
 482 001a 7047     		bx	lr
 483              		.cfi_endproc
 484              	.LFE37:
 486              		.section	.text.I2C_OwnAddress2Config,"ax",%progbits
 487              		.align	2
 488              		.global	I2C_OwnAddress2Config
 489              		.thumb
 490              		.thumb_func
 492              	I2C_OwnAddress2Config:
 493              	.LFB38:
 456:.\StdPeriphLib\src/stm32f10x_i2c.c ****   }
 457:.\StdPeriphLib\src/stm32f10x_i2c.c **** }
 458:.\StdPeriphLib\src/stm32f10x_i2c.c **** 
 459:.\StdPeriphLib\src/stm32f10x_i2c.c **** /**
 460:.\StdPeriphLib\src/stm32f10x_i2c.c ****   * @brief  Configures the specified I2C own address2.
 461:.\StdPeriphLib\src/stm32f10x_i2c.c ****   * @param  I2Cx: where x can be 1 or 2 to select the I2C peripheral.
 462:.\StdPeriphLib\src/stm32f10x_i2c.c ****   * @param  Address: specifies the 7bit I2C own address2.
 463:.\StdPeriphLib\src/stm32f10x_i2c.c ****   * @retval None.
 464:.\StdPeriphLib\src/stm32f10x_i2c.c ****   */
 465:.\StdPeriphLib\src/stm32f10x_i2c.c **** void I2C_OwnAddress2Config(I2C_TypeDef* I2Cx, uint8_t Address)
 466:.\StdPeriphLib\src/stm32f10x_i2c.c **** {
 494              		.loc 1 466 0
 495              		.cfi_startproc
 496              		@ args = 0, pretend = 0, frame = 0
 497              		@ frame_needed = 0, uses_anonymous_args = 0
 498              		@ link register save eliminated.
 499              	.LVL46:
 467:.\StdPeriphLib\src/stm32f10x_i2c.c ****   uint16_t tmpreg = 0;
 468:.\StdPeriphLib\src/stm32f10x_i2c.c **** 
 469:.\StdPeriphLib\src/stm32f10x_i2c.c ****   /* Check the parameters */
 470:.\StdPeriphLib\src/stm32f10x_i2c.c ****   assert_param(IS_I2C_ALL_PERIPH(I2Cx));
 471:.\StdPeriphLib\src/stm32f10x_i2c.c **** 
 472:.\StdPeriphLib\src/stm32f10x_i2c.c ****   /* Get the old register value */
 473:.\StdPeriphLib\src/stm32f10x_i2c.c ****   tmpreg = I2Cx->OAR2;
 500              		.loc 1 473 0
 501 0000 8389     		ldrh	r3, [r0, #12]
 502 0002 9BB2     		uxth	r3, r3
 503              	.LVL47:
 474:.\StdPeriphLib\src/stm32f10x_i2c.c **** 
 475:.\StdPeriphLib\src/stm32f10x_i2c.c ****   /* Reset I2Cx Own address2 bit [7:1] */
 476:.\StdPeriphLib\src/stm32f10x_i2c.c ****   tmpreg &= OAR2_ADD2_Reset;
 477:.\StdPeriphLib\src/stm32f10x_i2c.c **** 
 478:.\StdPeriphLib\src/stm32f10x_i2c.c ****   /* Set I2Cx Own address2 */
 479:.\StdPeriphLib\src/stm32f10x_i2c.c ****   tmpreg |= (uint16_t)((uint16_t)Address & (uint16_t)0x00FE);
 504              		.loc 1 479 0
 505 0004 01F0FE01 		and	r1, r1, #254
 506              	.LVL48:
 476:.\StdPeriphLib\src/stm32f10x_i2c.c **** 
 507              		.loc 1 476 0
 508 0008 23F0FE03 		bic	r3, r3, #254
 509              	.LVL49:
 510              		.loc 1 479 0
 511 000c 0B43     		orrs	r3, r3, r1
 512              	.LVL50:
 480:.\StdPeriphLib\src/stm32f10x_i2c.c **** 
 481:.\StdPeriphLib\src/stm32f10x_i2c.c ****   /* Store the new register value */
 482:.\StdPeriphLib\src/stm32f10x_i2c.c ****   I2Cx->OAR2 = tmpreg;
 513              		.loc 1 482 0
 514 000e 8381     		strh	r3, [r0, #12]	@ movhi
 515 0010 7047     		bx	lr
 516              		.cfi_endproc
 517              	.LFE38:
 519 0012 00BF     		.section	.text.I2C_DualAddressCmd,"ax",%progbits
 520              		.align	2
 521              		.global	I2C_DualAddressCmd
 522              		.thumb
 523              		.thumb_func
 525              	I2C_DualAddressCmd:
 526              	.LFB39:
 483:.\StdPeriphLib\src/stm32f10x_i2c.c **** }
 484:.\StdPeriphLib\src/stm32f10x_i2c.c **** 
 485:.\StdPeriphLib\src/stm32f10x_i2c.c **** /**
 486:.\StdPeriphLib\src/stm32f10x_i2c.c ****   * @brief  Enables or disables the specified I2C dual addressing mode.
 487:.\StdPeriphLib\src/stm32f10x_i2c.c ****   * @param  I2Cx: where x can be 1 or 2 to select the I2C peripheral.
 488:.\StdPeriphLib\src/stm32f10x_i2c.c ****   * @param  NewState: new state of the I2C dual addressing mode.
 489:.\StdPeriphLib\src/stm32f10x_i2c.c ****   *   This parameter can be: ENABLE or DISABLE.
 490:.\StdPeriphLib\src/stm32f10x_i2c.c ****   * @retval None
 491:.\StdPeriphLib\src/stm32f10x_i2c.c ****   */
 492:.\StdPeriphLib\src/stm32f10x_i2c.c **** void I2C_DualAddressCmd(I2C_TypeDef* I2Cx, FunctionalState NewState)
 493:.\StdPeriphLib\src/stm32f10x_i2c.c **** {
 527              		.loc 1 493 0
 528              		.cfi_startproc
 529              		@ args = 0, pretend = 0, frame = 0
 530              		@ frame_needed = 0, uses_anonymous_args = 0
 531              		@ link register save eliminated.
 532              	.LVL51:
 494:.\StdPeriphLib\src/stm32f10x_i2c.c ****   /* Check the parameters */
 495:.\StdPeriphLib\src/stm32f10x_i2c.c ****   assert_param(IS_I2C_ALL_PERIPH(I2Cx));
 496:.\StdPeriphLib\src/stm32f10x_i2c.c ****   assert_param(IS_FUNCTIONAL_STATE(NewState));
 497:.\StdPeriphLib\src/stm32f10x_i2c.c ****   if (NewState != DISABLE)
 533              		.loc 1 497 0
 534 0000 29B1     		cbz	r1, .L38
 498:.\StdPeriphLib\src/stm32f10x_i2c.c ****   {
 499:.\StdPeriphLib\src/stm32f10x_i2c.c ****     /* Enable dual addressing mode */
 500:.\StdPeriphLib\src/stm32f10x_i2c.c ****     I2Cx->OAR2 |= OAR2_ENDUAL_Set;
 535              		.loc 1 500 0
 536 0002 8389     		ldrh	r3, [r0, #12]
 537 0004 9BB2     		uxth	r3, r3
 538 0006 43F00103 		orr	r3, r3, #1
 539 000a 8381     		strh	r3, [r0, #12]	@ movhi
 540 000c 7047     		bx	lr
 541              	.L38:
 501:.\StdPeriphLib\src/stm32f10x_i2c.c ****   }
 502:.\StdPeriphLib\src/stm32f10x_i2c.c ****   else
 503:.\StdPeriphLib\src/stm32f10x_i2c.c ****   {
 504:.\StdPeriphLib\src/stm32f10x_i2c.c ****     /* Disable dual addressing mode */
 505:.\StdPeriphLib\src/stm32f10x_i2c.c ****     I2Cx->OAR2 &= OAR2_ENDUAL_Reset;
 542              		.loc 1 505 0
 543 000e 8389     		ldrh	r3, [r0, #12]
 544 0010 23F00103 		bic	r3, r3, #1
 545 0014 1B04     		lsls	r3, r3, #16
 546 0016 1B0C     		lsrs	r3, r3, #16
 547 0018 8381     		strh	r3, [r0, #12]	@ movhi
 548 001a 7047     		bx	lr
 549              		.cfi_endproc
 550              	.LFE39:
 552              		.section	.text.I2C_GeneralCallCmd,"ax",%progbits
 553              		.align	2
 554              		.global	I2C_GeneralCallCmd
 555              		.thumb
 556              		.thumb_func
 558              	I2C_GeneralCallCmd:
 559              	.LFB40:
 506:.\StdPeriphLib\src/stm32f10x_i2c.c ****   }
 507:.\StdPeriphLib\src/stm32f10x_i2c.c **** }
 508:.\StdPeriphLib\src/stm32f10x_i2c.c **** 
 509:.\StdPeriphLib\src/stm32f10x_i2c.c **** /**
 510:.\StdPeriphLib\src/stm32f10x_i2c.c ****   * @brief  Enables or disables the specified I2C general call feature.
 511:.\StdPeriphLib\src/stm32f10x_i2c.c ****   * @param  I2Cx: where x can be 1 or 2 to select the I2C peripheral.
 512:.\StdPeriphLib\src/stm32f10x_i2c.c ****   * @param  NewState: new state of the I2C General call.
 513:.\StdPeriphLib\src/stm32f10x_i2c.c ****   *   This parameter can be: ENABLE or DISABLE.
 514:.\StdPeriphLib\src/stm32f10x_i2c.c ****   * @retval None
 515:.\StdPeriphLib\src/stm32f10x_i2c.c ****   */
 516:.\StdPeriphLib\src/stm32f10x_i2c.c **** void I2C_GeneralCallCmd(I2C_TypeDef* I2Cx, FunctionalState NewState)
 517:.\StdPeriphLib\src/stm32f10x_i2c.c **** {
 560              		.loc 1 517 0
 561              		.cfi_startproc
 562              		@ args = 0, pretend = 0, frame = 0
 563              		@ frame_needed = 0, uses_anonymous_args = 0
 564              		@ link register save eliminated.
 565              	.LVL52:
 518:.\StdPeriphLib\src/stm32f10x_i2c.c ****   /* Check the parameters */
 519:.\StdPeriphLib\src/stm32f10x_i2c.c ****   assert_param(IS_I2C_ALL_PERIPH(I2Cx));
 520:.\StdPeriphLib\src/stm32f10x_i2c.c ****   assert_param(IS_FUNCTIONAL_STATE(NewState));
 521:.\StdPeriphLib\src/stm32f10x_i2c.c ****   if (NewState != DISABLE)
 566              		.loc 1 521 0
 567 0000 29B1     		cbz	r1, .L41
 522:.\StdPeriphLib\src/stm32f10x_i2c.c ****   {
 523:.\StdPeriphLib\src/stm32f10x_i2c.c ****     /* Enable generall call */
 524:.\StdPeriphLib\src/stm32f10x_i2c.c ****     I2Cx->CR1 |= CR1_ENGC_Set;
 568              		.loc 1 524 0
 569 0002 0388     		ldrh	r3, [r0]
 570 0004 9BB2     		uxth	r3, r3
 571 0006 43F04003 		orr	r3, r3, #64
 572 000a 0380     		strh	r3, [r0]	@ movhi
 573 000c 7047     		bx	lr
 574              	.L41:
 525:.\StdPeriphLib\src/stm32f10x_i2c.c ****   }
 526:.\StdPeriphLib\src/stm32f10x_i2c.c ****   else
 527:.\StdPeriphLib\src/stm32f10x_i2c.c ****   {
 528:.\StdPeriphLib\src/stm32f10x_i2c.c ****     /* Disable generall call */
 529:.\StdPeriphLib\src/stm32f10x_i2c.c ****     I2Cx->CR1 &= CR1_ENGC_Reset;
 575              		.loc 1 529 0
 576 000e 0388     		ldrh	r3, [r0]
 577 0010 23F04003 		bic	r3, r3, #64
 578 0014 1B04     		lsls	r3, r3, #16
 579 0016 1B0C     		lsrs	r3, r3, #16
 580 0018 0380     		strh	r3, [r0]	@ movhi
 581 001a 7047     		bx	lr
 582              		.cfi_endproc
 583              	.LFE40:
 585              		.section	.text.I2C_ITConfig,"ax",%progbits
 586              		.align	2
 587              		.global	I2C_ITConfig
 588              		.thumb
 589              		.thumb_func
 591              	I2C_ITConfig:
 592              	.LFB41:
 530:.\StdPeriphLib\src/stm32f10x_i2c.c ****   }
 531:.\StdPeriphLib\src/stm32f10x_i2c.c **** }
 532:.\StdPeriphLib\src/stm32f10x_i2c.c **** 
 533:.\StdPeriphLib\src/stm32f10x_i2c.c **** /**
 534:.\StdPeriphLib\src/stm32f10x_i2c.c ****   * @brief  Enables or disables the specified I2C interrupts.
 535:.\StdPeriphLib\src/stm32f10x_i2c.c ****   * @param  I2Cx: where x can be 1 or 2 to select the I2C peripheral.
 536:.\StdPeriphLib\src/stm32f10x_i2c.c ****   * @param  I2C_IT: specifies the I2C interrupts sources to be enabled or disabled. 
 537:.\StdPeriphLib\src/stm32f10x_i2c.c ****   *   This parameter can be any combination of the following values:
 538:.\StdPeriphLib\src/stm32f10x_i2c.c ****   *     @arg I2C_IT_BUF: Buffer interrupt mask
 539:.\StdPeriphLib\src/stm32f10x_i2c.c ****   *     @arg I2C_IT_EVT: Event interrupt mask
 540:.\StdPeriphLib\src/stm32f10x_i2c.c ****   *     @arg I2C_IT_ERR: Error interrupt mask
 541:.\StdPeriphLib\src/stm32f10x_i2c.c ****   * @param  NewState: new state of the specified I2C interrupts.
 542:.\StdPeriphLib\src/stm32f10x_i2c.c ****   *   This parameter can be: ENABLE or DISABLE.
 543:.\StdPeriphLib\src/stm32f10x_i2c.c ****   * @retval None
 544:.\StdPeriphLib\src/stm32f10x_i2c.c ****   */
 545:.\StdPeriphLib\src/stm32f10x_i2c.c **** void I2C_ITConfig(I2C_TypeDef* I2Cx, uint16_t I2C_IT, FunctionalState NewState)
 546:.\StdPeriphLib\src/stm32f10x_i2c.c **** {
 593              		.loc 1 546 0
 594              		.cfi_startproc
 595              		@ args = 0, pretend = 0, frame = 0
 596              		@ frame_needed = 0, uses_anonymous_args = 0
 597              		@ link register save eliminated.
 598              	.LVL53:
 547:.\StdPeriphLib\src/stm32f10x_i2c.c ****   /* Check the parameters */
 548:.\StdPeriphLib\src/stm32f10x_i2c.c ****   assert_param(IS_I2C_ALL_PERIPH(I2Cx));
 549:.\StdPeriphLib\src/stm32f10x_i2c.c ****   assert_param(IS_FUNCTIONAL_STATE(NewState));
 550:.\StdPeriphLib\src/stm32f10x_i2c.c ****   assert_param(IS_I2C_CONFIG_IT(I2C_IT));
 551:.\StdPeriphLib\src/stm32f10x_i2c.c ****   
 552:.\StdPeriphLib\src/stm32f10x_i2c.c ****   if (NewState != DISABLE)
 599              		.loc 1 552 0
 600 0000 22B1     		cbz	r2, .L44
 553:.\StdPeriphLib\src/stm32f10x_i2c.c ****   {
 554:.\StdPeriphLib\src/stm32f10x_i2c.c ****     /* Enable the selected I2C interrupts */
 555:.\StdPeriphLib\src/stm32f10x_i2c.c ****     I2Cx->CR2 |= I2C_IT;
 601              		.loc 1 555 0
 602 0002 8388     		ldrh	r3, [r0, #4]
 603 0004 9BB2     		uxth	r3, r3
 604 0006 1943     		orrs	r1, r1, r3
 605              	.LVL54:
 606 0008 8180     		strh	r1, [r0, #4]	@ movhi
 607 000a 7047     		bx	lr
 608              	.LVL55:
 609              	.L44:
 556:.\StdPeriphLib\src/stm32f10x_i2c.c ****   }
 557:.\StdPeriphLib\src/stm32f10x_i2c.c ****   else
 558:.\StdPeriphLib\src/stm32f10x_i2c.c ****   {
 559:.\StdPeriphLib\src/stm32f10x_i2c.c ****     /* Disable the selected I2C interrupts */
 560:.\StdPeriphLib\src/stm32f10x_i2c.c ****     I2Cx->CR2 &= (uint16_t)~I2C_IT;
 610              		.loc 1 560 0
 611 000c 8388     		ldrh	r3, [r0, #4]
 612 000e 9BB2     		uxth	r3, r3
 613 0010 23EA0101 		bic	r1, r3, r1
 614              	.LVL56:
 615 0014 8180     		strh	r1, [r0, #4]	@ movhi
 616 0016 7047     		bx	lr
 617              		.cfi_endproc
 618              	.LFE41:
 620              		.section	.text.I2C_SendData,"ax",%progbits
 621              		.align	2
 622              		.global	I2C_SendData
 623              		.thumb
 624              		.thumb_func
 626              	I2C_SendData:
 627              	.LFB42:
 561:.\StdPeriphLib\src/stm32f10x_i2c.c ****   }
 562:.\StdPeriphLib\src/stm32f10x_i2c.c **** }
 563:.\StdPeriphLib\src/stm32f10x_i2c.c **** 
 564:.\StdPeriphLib\src/stm32f10x_i2c.c **** /**
 565:.\StdPeriphLib\src/stm32f10x_i2c.c ****   * @brief  Sends a data byte through the I2Cx peripheral.
 566:.\StdPeriphLib\src/stm32f10x_i2c.c ****   * @param  I2Cx: where x can be 1 or 2 to select the I2C peripheral.
 567:.\StdPeriphLib\src/stm32f10x_i2c.c ****   * @param  Data: Byte to be transmitted..
 568:.\StdPeriphLib\src/stm32f10x_i2c.c ****   * @retval None
 569:.\StdPeriphLib\src/stm32f10x_i2c.c ****   */
 570:.\StdPeriphLib\src/stm32f10x_i2c.c **** void I2C_SendData(I2C_TypeDef* I2Cx, uint8_t Data)
 571:.\StdPeriphLib\src/stm32f10x_i2c.c **** {
 628              		.loc 1 571 0
 629              		.cfi_startproc
 630              		@ args = 0, pretend = 0, frame = 0
 631              		@ frame_needed = 0, uses_anonymous_args = 0
 632              		@ link register save eliminated.
 633              	.LVL57:
 572:.\StdPeriphLib\src/stm32f10x_i2c.c ****   /* Check the parameters */
 573:.\StdPeriphLib\src/stm32f10x_i2c.c ****   assert_param(IS_I2C_ALL_PERIPH(I2Cx));
 574:.\StdPeriphLib\src/stm32f10x_i2c.c ****   /* Write in the DR register the data to be sent */
 575:.\StdPeriphLib\src/stm32f10x_i2c.c ****   I2Cx->DR = Data;
 634              		.loc 1 575 0
 635 0000 0182     		strh	r1, [r0, #16]	@ movhi
 636 0002 7047     		bx	lr
 637              		.cfi_endproc
 638              	.LFE42:
 640              		.section	.text.I2C_ReceiveData,"ax",%progbits
 641              		.align	2
 642              		.global	I2C_ReceiveData
 643              		.thumb
 644              		.thumb_func
 646              	I2C_ReceiveData:
 647              	.LFB43:
 576:.\StdPeriphLib\src/stm32f10x_i2c.c **** }
 577:.\StdPeriphLib\src/stm32f10x_i2c.c **** 
 578:.\StdPeriphLib\src/stm32f10x_i2c.c **** /**
 579:.\StdPeriphLib\src/stm32f10x_i2c.c ****   * @brief  Returns the most recent received data by the I2Cx peripheral.
 580:.\StdPeriphLib\src/stm32f10x_i2c.c ****   * @param  I2Cx: where x can be 1 or 2 to select the I2C peripheral.
 581:.\StdPeriphLib\src/stm32f10x_i2c.c ****   * @retval The value of the received data.
 582:.\StdPeriphLib\src/stm32f10x_i2c.c ****   */
 583:.\StdPeriphLib\src/stm32f10x_i2c.c **** uint8_t I2C_ReceiveData(I2C_TypeDef* I2Cx)
 584:.\StdPeriphLib\src/stm32f10x_i2c.c **** {
 648              		.loc 1 584 0
 649              		.cfi_startproc
 650              		@ args = 0, pretend = 0, frame = 0
 651              		@ frame_needed = 0, uses_anonymous_args = 0
 652              		@ link register save eliminated.
 653              	.LVL58:
 585:.\StdPeriphLib\src/stm32f10x_i2c.c ****   /* Check the parameters */
 586:.\StdPeriphLib\src/stm32f10x_i2c.c ****   assert_param(IS_I2C_ALL_PERIPH(I2Cx));
 587:.\StdPeriphLib\src/stm32f10x_i2c.c ****   /* Return the data in the DR register */
 588:.\StdPeriphLib\src/stm32f10x_i2c.c ****   return (uint8_t)I2Cx->DR;
 654              		.loc 1 588 0
 655 0000 008A     		ldrh	r0, [r0, #16]
 656              	.LVL59:
 589:.\StdPeriphLib\src/stm32f10x_i2c.c **** }
 657              		.loc 1 589 0
 658 0002 C0B2     		uxtb	r0, r0
 659 0004 7047     		bx	lr
 660              		.cfi_endproc
 661              	.LFE43:
 663 0006 00BF     		.section	.text.I2C_Send7bitAddress,"ax",%progbits
 664              		.align	2
 665              		.global	I2C_Send7bitAddress
 666              		.thumb
 667              		.thumb_func
 669              	I2C_Send7bitAddress:
 670              	.LFB44:
 590:.\StdPeriphLib\src/stm32f10x_i2c.c **** 
 591:.\StdPeriphLib\src/stm32f10x_i2c.c **** /**
 592:.\StdPeriphLib\src/stm32f10x_i2c.c ****   * @brief  Transmits the address byte to select the slave device.
 593:.\StdPeriphLib\src/stm32f10x_i2c.c ****   * @param  I2Cx: where x can be 1 or 2 to select the I2C peripheral.
 594:.\StdPeriphLib\src/stm32f10x_i2c.c ****   * @param  Address: specifies the slave address which will be transmitted
 595:.\StdPeriphLib\src/stm32f10x_i2c.c ****   * @param  I2C_Direction: specifies whether the I2C device will be a
 596:.\StdPeriphLib\src/stm32f10x_i2c.c ****   *   Transmitter or a Receiver. This parameter can be one of the following values
 597:.\StdPeriphLib\src/stm32f10x_i2c.c ****   *     @arg I2C_Direction_Transmitter: Transmitter mode
 598:.\StdPeriphLib\src/stm32f10x_i2c.c ****   *     @arg I2C_Direction_Receiver: Receiver mode
 599:.\StdPeriphLib\src/stm32f10x_i2c.c ****   * @retval None.
 600:.\StdPeriphLib\src/stm32f10x_i2c.c ****   */
 601:.\StdPeriphLib\src/stm32f10x_i2c.c **** void I2C_Send7bitAddress(I2C_TypeDef* I2Cx, uint8_t Address, uint8_t I2C_Direction)
 602:.\StdPeriphLib\src/stm32f10x_i2c.c **** {
 671              		.loc 1 602 0
 672              		.cfi_startproc
 673              		@ args = 0, pretend = 0, frame = 0
 674              		@ frame_needed = 0, uses_anonymous_args = 0
 675              		@ link register save eliminated.
 676              	.LVL60:
 603:.\StdPeriphLib\src/stm32f10x_i2c.c ****   /* Check the parameters */
 604:.\StdPeriphLib\src/stm32f10x_i2c.c ****   assert_param(IS_I2C_ALL_PERIPH(I2Cx));
 605:.\StdPeriphLib\src/stm32f10x_i2c.c ****   assert_param(IS_I2C_DIRECTION(I2C_Direction));
 606:.\StdPeriphLib\src/stm32f10x_i2c.c ****   /* Test on the direction to set/reset the read/write bit */
 607:.\StdPeriphLib\src/stm32f10x_i2c.c ****   if (I2C_Direction != I2C_Direction_Transmitter)
 677              		.loc 1 607 0
 678 0000 12B1     		cbz	r2, .L49
 608:.\StdPeriphLib\src/stm32f10x_i2c.c ****   {
 609:.\StdPeriphLib\src/stm32f10x_i2c.c ****     /* Set the address bit0 for read */
 610:.\StdPeriphLib\src/stm32f10x_i2c.c ****     Address |= OAR1_ADD0_Set;
 679              		.loc 1 610 0
 680 0002 41F00101 		orr	r1, r1, #1
 681              	.LVL61:
 682 0006 01E0     		b	.L50
 683              	.L49:
 611:.\StdPeriphLib\src/stm32f10x_i2c.c ****   }
 612:.\StdPeriphLib\src/stm32f10x_i2c.c ****   else
 613:.\StdPeriphLib\src/stm32f10x_i2c.c ****   {
 614:.\StdPeriphLib\src/stm32f10x_i2c.c ****     /* Reset the address bit0 for write */
 615:.\StdPeriphLib\src/stm32f10x_i2c.c ****     Address &= OAR1_ADD0_Reset;
 684              		.loc 1 615 0
 685 0008 01F0FE01 		and	r1, r1, #254
 686              	.LVL62:
 687              	.L50:
 616:.\StdPeriphLib\src/stm32f10x_i2c.c ****   }
 617:.\StdPeriphLib\src/stm32f10x_i2c.c ****   /* Send the address */
 618:.\StdPeriphLib\src/stm32f10x_i2c.c ****   I2Cx->DR = Address;
 688              		.loc 1 618 0
 689 000c 89B2     		uxth	r1, r1
 690              	.LVL63:
 691 000e 0182     		strh	r1, [r0, #16]	@ movhi
 692 0010 7047     		bx	lr
 693              		.cfi_endproc
 694              	.LFE44:
 696 0012 00BF     		.section	.text.I2C_ReadRegister,"ax",%progbits
 697              		.align	2
 698              		.global	I2C_ReadRegister
 699              		.thumb
 700              		.thumb_func
 702              	I2C_ReadRegister:
 703              	.LFB45:
 619:.\StdPeriphLib\src/stm32f10x_i2c.c **** }
 620:.\StdPeriphLib\src/stm32f10x_i2c.c **** 
 621:.\StdPeriphLib\src/stm32f10x_i2c.c **** /**
 622:.\StdPeriphLib\src/stm32f10x_i2c.c ****   * @brief  Reads the specified I2C register and returns its value.
 623:.\StdPeriphLib\src/stm32f10x_i2c.c ****   * @param  I2C_Register: specifies the register to read.
 624:.\StdPeriphLib\src/stm32f10x_i2c.c ****   *   This parameter can be one of the following values:
 625:.\StdPeriphLib\src/stm32f10x_i2c.c ****   *     @arg I2C_Register_CR1:  CR1 register.
 626:.\StdPeriphLib\src/stm32f10x_i2c.c ****   *     @arg I2C_Register_CR2:   CR2 register.
 627:.\StdPeriphLib\src/stm32f10x_i2c.c ****   *     @arg I2C_Register_OAR1:  OAR1 register.
 628:.\StdPeriphLib\src/stm32f10x_i2c.c ****   *     @arg I2C_Register_OAR2:  OAR2 register.
 629:.\StdPeriphLib\src/stm32f10x_i2c.c ****   *     @arg I2C_Register_DR:    DR register.
 630:.\StdPeriphLib\src/stm32f10x_i2c.c ****   *     @arg I2C_Register_SR1:   SR1 register.
 631:.\StdPeriphLib\src/stm32f10x_i2c.c ****   *     @arg I2C_Register_SR2:   SR2 register.
 632:.\StdPeriphLib\src/stm32f10x_i2c.c ****   *     @arg I2C_Register_CCR:   CCR register.
 633:.\StdPeriphLib\src/stm32f10x_i2c.c ****   *     @arg I2C_Register_TRISE: TRISE register.
 634:.\StdPeriphLib\src/stm32f10x_i2c.c ****   * @retval The value of the read register.
 635:.\StdPeriphLib\src/stm32f10x_i2c.c ****   */
 636:.\StdPeriphLib\src/stm32f10x_i2c.c **** uint16_t I2C_ReadRegister(I2C_TypeDef* I2Cx, uint8_t I2C_Register)
 637:.\StdPeriphLib\src/stm32f10x_i2c.c **** {
 704              		.loc 1 637 0
 705              		.cfi_startproc
 706              		@ args = 0, pretend = 0, frame = 8
 707              		@ frame_needed = 0, uses_anonymous_args = 0
 708              		@ link register save eliminated.
 709              	.LVL64:
 710 0000 82B0     		sub	sp, sp, #8
 711              	.LCFI4:
 712              		.cfi_def_cfa_offset 8
 638:.\StdPeriphLib\src/stm32f10x_i2c.c ****   __IO uint32_t tmp = 0;
 713              		.loc 1 638 0
 714 0002 0023     		movs	r3, #0
 715 0004 0193     		str	r3, [sp, #4]
 639:.\StdPeriphLib\src/stm32f10x_i2c.c **** 
 640:.\StdPeriphLib\src/stm32f10x_i2c.c ****   /* Check the parameters */
 641:.\StdPeriphLib\src/stm32f10x_i2c.c ****   assert_param(IS_I2C_ALL_PERIPH(I2Cx));
 642:.\StdPeriphLib\src/stm32f10x_i2c.c ****   assert_param(IS_I2C_REGISTER(I2C_Register));
 643:.\StdPeriphLib\src/stm32f10x_i2c.c **** 
 644:.\StdPeriphLib\src/stm32f10x_i2c.c ****   tmp = (uint32_t) I2Cx;
 716              		.loc 1 644 0
 717 0006 0190     		str	r0, [sp, #4]
 645:.\StdPeriphLib\src/stm32f10x_i2c.c ****   tmp += I2C_Register;
 718              		.loc 1 645 0
 719 0008 019B     		ldr	r3, [sp, #4]
 720 000a 1944     		add	r1, r1, r3
 721              	.LVL65:
 722 000c 0191     		str	r1, [sp, #4]
 646:.\StdPeriphLib\src/stm32f10x_i2c.c **** 
 647:.\StdPeriphLib\src/stm32f10x_i2c.c ****   /* Return the selected register value */
 648:.\StdPeriphLib\src/stm32f10x_i2c.c ****   return (*(__IO uint16_t *) tmp);
 723              		.loc 1 648 0
 724 000e 019B     		ldr	r3, [sp, #4]
 725 0010 1888     		ldrh	r0, [r3]
 726              	.LVL66:
 649:.\StdPeriphLib\src/stm32f10x_i2c.c **** }
 727              		.loc 1 649 0
 728 0012 80B2     		uxth	r0, r0
 729 0014 02B0     		add	sp, sp, #8
 730              	.LCFI5:
 731              		.cfi_def_cfa_offset 0
 732              		@ sp needed
 733 0016 7047     		bx	lr
 734              		.cfi_endproc
 735              	.LFE45:
 737              		.section	.text.I2C_SoftwareResetCmd,"ax",%progbits
 738              		.align	2
 739              		.global	I2C_SoftwareResetCmd
 740              		.thumb
 741              		.thumb_func
 743              	I2C_SoftwareResetCmd:
 744              	.LFB46:
 650:.\StdPeriphLib\src/stm32f10x_i2c.c **** 
 651:.\StdPeriphLib\src/stm32f10x_i2c.c **** /**
 652:.\StdPeriphLib\src/stm32f10x_i2c.c ****   * @brief  Enables or disables the specified I2C software reset.
 653:.\StdPeriphLib\src/stm32f10x_i2c.c ****   * @param  I2Cx: where x can be 1 or 2 to select the I2C peripheral.
 654:.\StdPeriphLib\src/stm32f10x_i2c.c ****   * @param  NewState: new state of the I2C software reset.
 655:.\StdPeriphLib\src/stm32f10x_i2c.c ****   *   This parameter can be: ENABLE or DISABLE.
 656:.\StdPeriphLib\src/stm32f10x_i2c.c ****   * @retval None
 657:.\StdPeriphLib\src/stm32f10x_i2c.c ****   */
 658:.\StdPeriphLib\src/stm32f10x_i2c.c **** void I2C_SoftwareResetCmd(I2C_TypeDef* I2Cx, FunctionalState NewState)
 659:.\StdPeriphLib\src/stm32f10x_i2c.c **** {
 745              		.loc 1 659 0
 746              		.cfi_startproc
 747              		@ args = 0, pretend = 0, frame = 0
 748              		@ frame_needed = 0, uses_anonymous_args = 0
 749              		@ link register save eliminated.
 750              	.LVL67:
 660:.\StdPeriphLib\src/stm32f10x_i2c.c ****   /* Check the parameters */
 661:.\StdPeriphLib\src/stm32f10x_i2c.c ****   assert_param(IS_I2C_ALL_PERIPH(I2Cx));
 662:.\StdPeriphLib\src/stm32f10x_i2c.c ****   assert_param(IS_FUNCTIONAL_STATE(NewState));
 663:.\StdPeriphLib\src/stm32f10x_i2c.c ****   if (NewState != DISABLE)
 751              		.loc 1 663 0
 752 0000 39B1     		cbz	r1, .L54
 664:.\StdPeriphLib\src/stm32f10x_i2c.c ****   {
 665:.\StdPeriphLib\src/stm32f10x_i2c.c ****     /* Peripheral under reset */
 666:.\StdPeriphLib\src/stm32f10x_i2c.c ****     I2Cx->CR1 |= CR1_SWRST_Set;
 753              		.loc 1 666 0
 754 0002 0388     		ldrh	r3, [r0]
 755 0004 6FEA4343 		mvn	r3, r3, lsl #17
 756 0008 6FEA5343 		mvn	r3, r3, lsr #17
 757 000c 9BB2     		uxth	r3, r3
 758 000e 0380     		strh	r3, [r0]	@ movhi
 759 0010 7047     		bx	lr
 760              	.L54:
 667:.\StdPeriphLib\src/stm32f10x_i2c.c ****   }
 668:.\StdPeriphLib\src/stm32f10x_i2c.c ****   else
 669:.\StdPeriphLib\src/stm32f10x_i2c.c ****   {
 670:.\StdPeriphLib\src/stm32f10x_i2c.c ****     /* Peripheral not under reset */
 671:.\StdPeriphLib\src/stm32f10x_i2c.c ****     I2Cx->CR1 &= CR1_SWRST_Reset;
 761              		.loc 1 671 0
 762 0012 0388     		ldrh	r3, [r0]
 763 0014 C3F30E03 		ubfx	r3, r3, #0, #15
 764 0018 0380     		strh	r3, [r0]	@ movhi
 765 001a 7047     		bx	lr
 766              		.cfi_endproc
 767              	.LFE46:
 769              		.section	.text.I2C_NACKPositionConfig,"ax",%progbits
 770              		.align	2
 771              		.global	I2C_NACKPositionConfig
 772              		.thumb
 773              		.thumb_func
 775              	I2C_NACKPositionConfig:
 776              	.LFB47:
 672:.\StdPeriphLib\src/stm32f10x_i2c.c ****   }
 673:.\StdPeriphLib\src/stm32f10x_i2c.c **** }
 674:.\StdPeriphLib\src/stm32f10x_i2c.c **** 
 675:.\StdPeriphLib\src/stm32f10x_i2c.c **** /**
 676:.\StdPeriphLib\src/stm32f10x_i2c.c ****   * @brief  Selects the specified I2C NACK position in master receiver mode.
 677:.\StdPeriphLib\src/stm32f10x_i2c.c ****   *         This function is useful in I2C Master Receiver mode when the number
 678:.\StdPeriphLib\src/stm32f10x_i2c.c ****   *         of data to be received is equal to 2. In this case, this function 
 679:.\StdPeriphLib\src/stm32f10x_i2c.c ****   *         should be called (with parameter I2C_NACKPosition_Next) before data 
 680:.\StdPeriphLib\src/stm32f10x_i2c.c ****   *         reception starts,as described in the 2-byte reception procedure 
 681:.\StdPeriphLib\src/stm32f10x_i2c.c ****   *         recommended in Reference Manual in Section: Master receiver.                
 682:.\StdPeriphLib\src/stm32f10x_i2c.c ****   * @param  I2Cx: where x can be 1 or 2 to select the I2C peripheral.
 683:.\StdPeriphLib\src/stm32f10x_i2c.c ****   * @param  I2C_NACKPosition: specifies the NACK position. 
 684:.\StdPeriphLib\src/stm32f10x_i2c.c ****   *   This parameter can be one of the following values:
 685:.\StdPeriphLib\src/stm32f10x_i2c.c ****   *     @arg I2C_NACKPosition_Next: indicates that the next byte will be the last
 686:.\StdPeriphLib\src/stm32f10x_i2c.c ****   *          received byte.  
 687:.\StdPeriphLib\src/stm32f10x_i2c.c ****   *     @arg I2C_NACKPosition_Current: indicates that current byte is the last 
 688:.\StdPeriphLib\src/stm32f10x_i2c.c ****   *          received byte.
 689:.\StdPeriphLib\src/stm32f10x_i2c.c ****   *            
 690:.\StdPeriphLib\src/stm32f10x_i2c.c ****   * @note    This function configures the same bit (POS) as I2C_PECPositionConfig() 
 691:.\StdPeriphLib\src/stm32f10x_i2c.c ****   *          but is intended to be used in I2C mode while I2C_PECPositionConfig() 
 692:.\StdPeriphLib\src/stm32f10x_i2c.c ****   *          is intended to used in SMBUS mode. 
 693:.\StdPeriphLib\src/stm32f10x_i2c.c ****   *            
 694:.\StdPeriphLib\src/stm32f10x_i2c.c ****   * @retval None
 695:.\StdPeriphLib\src/stm32f10x_i2c.c ****   */
 696:.\StdPeriphLib\src/stm32f10x_i2c.c **** void I2C_NACKPositionConfig(I2C_TypeDef* I2Cx, uint16_t I2C_NACKPosition)
 697:.\StdPeriphLib\src/stm32f10x_i2c.c **** {
 777              		.loc 1 697 0
 778              		.cfi_startproc
 779              		@ args = 0, pretend = 0, frame = 0
 780              		@ frame_needed = 0, uses_anonymous_args = 0
 781              		@ link register save eliminated.
 782              	.LVL68:
 698:.\StdPeriphLib\src/stm32f10x_i2c.c ****   /* Check the parameters */
 699:.\StdPeriphLib\src/stm32f10x_i2c.c ****   assert_param(IS_I2C_ALL_PERIPH(I2Cx));
 700:.\StdPeriphLib\src/stm32f10x_i2c.c ****   assert_param(IS_I2C_NACK_POSITION(I2C_NACKPosition));
 701:.\StdPeriphLib\src/stm32f10x_i2c.c ****   
 702:.\StdPeriphLib\src/stm32f10x_i2c.c ****   /* Check the input parameter */
 703:.\StdPeriphLib\src/stm32f10x_i2c.c ****   if (I2C_NACKPosition == I2C_NACKPosition_Next)
 783              		.loc 1 703 0
 784 0000 B1F5006F 		cmp	r1, #2048
 785 0004 05D1     		bne	.L57
 704:.\StdPeriphLib\src/stm32f10x_i2c.c ****   {
 705:.\StdPeriphLib\src/stm32f10x_i2c.c ****     /* Next byte in shift register is the last received byte */
 706:.\StdPeriphLib\src/stm32f10x_i2c.c ****     I2Cx->CR1 |= I2C_NACKPosition_Next;
 786              		.loc 1 706 0
 787 0006 0388     		ldrh	r3, [r0]
 788 0008 9BB2     		uxth	r3, r3
 789 000a 43F40063 		orr	r3, r3, #2048
 790 000e 0380     		strh	r3, [r0]	@ movhi
 791 0010 7047     		bx	lr
 792              	.L57:
 707:.\StdPeriphLib\src/stm32f10x_i2c.c ****   }
 708:.\StdPeriphLib\src/stm32f10x_i2c.c ****   else
 709:.\StdPeriphLib\src/stm32f10x_i2c.c ****   {
 710:.\StdPeriphLib\src/stm32f10x_i2c.c ****     /* Current byte in shift register is the last received byte */
 711:.\StdPeriphLib\src/stm32f10x_i2c.c ****     I2Cx->CR1 &= I2C_NACKPosition_Current;
 793              		.loc 1 711 0
 794 0012 0388     		ldrh	r3, [r0]
 795 0014 23F40063 		bic	r3, r3, #2048
 796 0018 1B04     		lsls	r3, r3, #16
 797 001a 1B0C     		lsrs	r3, r3, #16
 798 001c 0380     		strh	r3, [r0]	@ movhi
 799 001e 7047     		bx	lr
 800              		.cfi_endproc
 801              	.LFE47:
 803              		.section	.text.I2C_SMBusAlertConfig,"ax",%progbits
 804              		.align	2
 805              		.global	I2C_SMBusAlertConfig
 806              		.thumb
 807              		.thumb_func
 809              	I2C_SMBusAlertConfig:
 810              	.LFB48:
 712:.\StdPeriphLib\src/stm32f10x_i2c.c ****   }
 713:.\StdPeriphLib\src/stm32f10x_i2c.c **** }
 714:.\StdPeriphLib\src/stm32f10x_i2c.c **** 
 715:.\StdPeriphLib\src/stm32f10x_i2c.c **** /**
 716:.\StdPeriphLib\src/stm32f10x_i2c.c ****   * @brief  Drives the SMBusAlert pin high or low for the specified I2C.
 717:.\StdPeriphLib\src/stm32f10x_i2c.c ****   * @param  I2Cx: where x can be 1 or 2 to select the I2C peripheral.
 718:.\StdPeriphLib\src/stm32f10x_i2c.c ****   * @param  I2C_SMBusAlert: specifies SMBAlert pin level. 
 719:.\StdPeriphLib\src/stm32f10x_i2c.c ****   *   This parameter can be one of the following values:
 720:.\StdPeriphLib\src/stm32f10x_i2c.c ****   *     @arg I2C_SMBusAlert_Low: SMBAlert pin driven low
 721:.\StdPeriphLib\src/stm32f10x_i2c.c ****   *     @arg I2C_SMBusAlert_High: SMBAlert pin driven high
 722:.\StdPeriphLib\src/stm32f10x_i2c.c ****   * @retval None
 723:.\StdPeriphLib\src/stm32f10x_i2c.c ****   */
 724:.\StdPeriphLib\src/stm32f10x_i2c.c **** void I2C_SMBusAlertConfig(I2C_TypeDef* I2Cx, uint16_t I2C_SMBusAlert)
 725:.\StdPeriphLib\src/stm32f10x_i2c.c **** {
 811              		.loc 1 725 0
 812              		.cfi_startproc
 813              		@ args = 0, pretend = 0, frame = 0
 814              		@ frame_needed = 0, uses_anonymous_args = 0
 815              		@ link register save eliminated.
 816              	.LVL69:
 726:.\StdPeriphLib\src/stm32f10x_i2c.c ****   /* Check the parameters */
 727:.\StdPeriphLib\src/stm32f10x_i2c.c ****   assert_param(IS_I2C_ALL_PERIPH(I2Cx));
 728:.\StdPeriphLib\src/stm32f10x_i2c.c ****   assert_param(IS_I2C_SMBUS_ALERT(I2C_SMBusAlert));
 729:.\StdPeriphLib\src/stm32f10x_i2c.c ****   if (I2C_SMBusAlert == I2C_SMBusAlert_Low)
 817              		.loc 1 729 0
 818 0000 B1F5005F 		cmp	r1, #8192
 819 0004 05D1     		bne	.L60
 730:.\StdPeriphLib\src/stm32f10x_i2c.c ****   {
 731:.\StdPeriphLib\src/stm32f10x_i2c.c ****     /* Drive the SMBusAlert pin Low */
 732:.\StdPeriphLib\src/stm32f10x_i2c.c ****     I2Cx->CR1 |= I2C_SMBusAlert_Low;
 820              		.loc 1 732 0
 821 0006 0388     		ldrh	r3, [r0]
 822 0008 9BB2     		uxth	r3, r3
 823 000a 43F40053 		orr	r3, r3, #8192
 824 000e 0380     		strh	r3, [r0]	@ movhi
 825 0010 7047     		bx	lr
 826              	.L60:
 733:.\StdPeriphLib\src/stm32f10x_i2c.c ****   }
 734:.\StdPeriphLib\src/stm32f10x_i2c.c ****   else
 735:.\StdPeriphLib\src/stm32f10x_i2c.c ****   {
 736:.\StdPeriphLib\src/stm32f10x_i2c.c ****     /* Drive the SMBusAlert pin High  */
 737:.\StdPeriphLib\src/stm32f10x_i2c.c ****     I2Cx->CR1 &= I2C_SMBusAlert_High;
 827              		.loc 1 737 0
 828 0012 0388     		ldrh	r3, [r0]
 829 0014 23F40053 		bic	r3, r3, #8192
 830 0018 1B04     		lsls	r3, r3, #16
 831 001a 1B0C     		lsrs	r3, r3, #16
 832 001c 0380     		strh	r3, [r0]	@ movhi
 833 001e 7047     		bx	lr
 834              		.cfi_endproc
 835              	.LFE48:
 837              		.section	.text.I2C_TransmitPEC,"ax",%progbits
 838              		.align	2
 839              		.global	I2C_TransmitPEC
 840              		.thumb
 841              		.thumb_func
 843              	I2C_TransmitPEC:
 844              	.LFB49:
 738:.\StdPeriphLib\src/stm32f10x_i2c.c ****   }
 739:.\StdPeriphLib\src/stm32f10x_i2c.c **** }
 740:.\StdPeriphLib\src/stm32f10x_i2c.c **** 
 741:.\StdPeriphLib\src/stm32f10x_i2c.c **** /**
 742:.\StdPeriphLib\src/stm32f10x_i2c.c ****   * @brief  Enables or disables the specified I2C PEC transfer.
 743:.\StdPeriphLib\src/stm32f10x_i2c.c ****   * @param  I2Cx: where x can be 1 or 2 to select the I2C peripheral.
 744:.\StdPeriphLib\src/stm32f10x_i2c.c ****   * @param  NewState: new state of the I2C PEC transmission.
 745:.\StdPeriphLib\src/stm32f10x_i2c.c ****   *   This parameter can be: ENABLE or DISABLE.
 746:.\StdPeriphLib\src/stm32f10x_i2c.c ****   * @retval None
 747:.\StdPeriphLib\src/stm32f10x_i2c.c ****   */
 748:.\StdPeriphLib\src/stm32f10x_i2c.c **** void I2C_TransmitPEC(I2C_TypeDef* I2Cx, FunctionalState NewState)
 749:.\StdPeriphLib\src/stm32f10x_i2c.c **** {
 845              		.loc 1 749 0
 846              		.cfi_startproc
 847              		@ args = 0, pretend = 0, frame = 0
 848              		@ frame_needed = 0, uses_anonymous_args = 0
 849              		@ link register save eliminated.
 850              	.LVL70:
 750:.\StdPeriphLib\src/stm32f10x_i2c.c ****   /* Check the parameters */
 751:.\StdPeriphLib\src/stm32f10x_i2c.c ****   assert_param(IS_I2C_ALL_PERIPH(I2Cx));
 752:.\StdPeriphLib\src/stm32f10x_i2c.c ****   assert_param(IS_FUNCTIONAL_STATE(NewState));
 753:.\StdPeriphLib\src/stm32f10x_i2c.c ****   if (NewState != DISABLE)
 851              		.loc 1 753 0
 852 0000 29B1     		cbz	r1, .L63
 754:.\StdPeriphLib\src/stm32f10x_i2c.c ****   {
 755:.\StdPeriphLib\src/stm32f10x_i2c.c ****     /* Enable the selected I2C PEC transmission */
 756:.\StdPeriphLib\src/stm32f10x_i2c.c ****     I2Cx->CR1 |= CR1_PEC_Set;
 853              		.loc 1 756 0
 854 0002 0388     		ldrh	r3, [r0]
 855 0004 9BB2     		uxth	r3, r3
 856 0006 43F48053 		orr	r3, r3, #4096
 857 000a 0380     		strh	r3, [r0]	@ movhi
 858 000c 7047     		bx	lr
 859              	.L63:
 757:.\StdPeriphLib\src/stm32f10x_i2c.c ****   }
 758:.\StdPeriphLib\src/stm32f10x_i2c.c ****   else
 759:.\StdPeriphLib\src/stm32f10x_i2c.c ****   {
 760:.\StdPeriphLib\src/stm32f10x_i2c.c ****     /* Disable the selected I2C PEC transmission */
 761:.\StdPeriphLib\src/stm32f10x_i2c.c ****     I2Cx->CR1 &= CR1_PEC_Reset;
 860              		.loc 1 761 0
 861 000e 0388     		ldrh	r3, [r0]
 862 0010 23F48053 		bic	r3, r3, #4096
 863 0014 1B04     		lsls	r3, r3, #16
 864 0016 1B0C     		lsrs	r3, r3, #16
 865 0018 0380     		strh	r3, [r0]	@ movhi
 866 001a 7047     		bx	lr
 867              		.cfi_endproc
 868              	.LFE49:
 870              		.section	.text.I2C_PECPositionConfig,"ax",%progbits
 871              		.align	2
 872              		.global	I2C_PECPositionConfig
 873              		.thumb
 874              		.thumb_func
 876              	I2C_PECPositionConfig:
 877              	.LFB50:
 762:.\StdPeriphLib\src/stm32f10x_i2c.c ****   }
 763:.\StdPeriphLib\src/stm32f10x_i2c.c **** }
 764:.\StdPeriphLib\src/stm32f10x_i2c.c **** 
 765:.\StdPeriphLib\src/stm32f10x_i2c.c **** /**
 766:.\StdPeriphLib\src/stm32f10x_i2c.c ****   * @brief  Selects the specified I2C PEC position.
 767:.\StdPeriphLib\src/stm32f10x_i2c.c ****   * @param  I2Cx: where x can be 1 or 2 to select the I2C peripheral.
 768:.\StdPeriphLib\src/stm32f10x_i2c.c ****   * @param  I2C_PECPosition: specifies the PEC position. 
 769:.\StdPeriphLib\src/stm32f10x_i2c.c ****   *   This parameter can be one of the following values:
 770:.\StdPeriphLib\src/stm32f10x_i2c.c ****   *     @arg I2C_PECPosition_Next: indicates that the next byte is PEC
 771:.\StdPeriphLib\src/stm32f10x_i2c.c ****   *     @arg I2C_PECPosition_Current: indicates that current byte is PEC
 772:.\StdPeriphLib\src/stm32f10x_i2c.c ****   *       
 773:.\StdPeriphLib\src/stm32f10x_i2c.c ****   * @note    This function configures the same bit (POS) as I2C_NACKPositionConfig()
 774:.\StdPeriphLib\src/stm32f10x_i2c.c ****   *          but is intended to be used in SMBUS mode while I2C_NACKPositionConfig() 
 775:.\StdPeriphLib\src/stm32f10x_i2c.c ****   *          is intended to used in I2C mode.
 776:.\StdPeriphLib\src/stm32f10x_i2c.c ****   *               
 777:.\StdPeriphLib\src/stm32f10x_i2c.c ****   * @retval None
 778:.\StdPeriphLib\src/stm32f10x_i2c.c ****   */
 779:.\StdPeriphLib\src/stm32f10x_i2c.c **** void I2C_PECPositionConfig(I2C_TypeDef* I2Cx, uint16_t I2C_PECPosition)
 780:.\StdPeriphLib\src/stm32f10x_i2c.c **** {
 878              		.loc 1 780 0
 879              		.cfi_startproc
 880              		@ args = 0, pretend = 0, frame = 0
 881              		@ frame_needed = 0, uses_anonymous_args = 0
 882              		@ link register save eliminated.
 883              	.LVL71:
 781:.\StdPeriphLib\src/stm32f10x_i2c.c ****   /* Check the parameters */
 782:.\StdPeriphLib\src/stm32f10x_i2c.c ****   assert_param(IS_I2C_ALL_PERIPH(I2Cx));
 783:.\StdPeriphLib\src/stm32f10x_i2c.c ****   assert_param(IS_I2C_PEC_POSITION(I2C_PECPosition));
 784:.\StdPeriphLib\src/stm32f10x_i2c.c ****   if (I2C_PECPosition == I2C_PECPosition_Next)
 884              		.loc 1 784 0
 885 0000 B1F5006F 		cmp	r1, #2048
 886 0004 05D1     		bne	.L66
 785:.\StdPeriphLib\src/stm32f10x_i2c.c ****   {
 786:.\StdPeriphLib\src/stm32f10x_i2c.c ****     /* Next byte in shift register is PEC */
 787:.\StdPeriphLib\src/stm32f10x_i2c.c ****     I2Cx->CR1 |= I2C_PECPosition_Next;
 887              		.loc 1 787 0
 888 0006 0388     		ldrh	r3, [r0]
 889 0008 9BB2     		uxth	r3, r3
 890 000a 43F40063 		orr	r3, r3, #2048
 891 000e 0380     		strh	r3, [r0]	@ movhi
 892 0010 7047     		bx	lr
 893              	.L66:
 788:.\StdPeriphLib\src/stm32f10x_i2c.c ****   }
 789:.\StdPeriphLib\src/stm32f10x_i2c.c ****   else
 790:.\StdPeriphLib\src/stm32f10x_i2c.c ****   {
 791:.\StdPeriphLib\src/stm32f10x_i2c.c ****     /* Current byte in shift register is PEC */
 792:.\StdPeriphLib\src/stm32f10x_i2c.c ****     I2Cx->CR1 &= I2C_PECPosition_Current;
 894              		.loc 1 792 0
 895 0012 0388     		ldrh	r3, [r0]
 896 0014 23F40063 		bic	r3, r3, #2048
 897 0018 1B04     		lsls	r3, r3, #16
 898 001a 1B0C     		lsrs	r3, r3, #16
 899 001c 0380     		strh	r3, [r0]	@ movhi
 900 001e 7047     		bx	lr
 901              		.cfi_endproc
 902              	.LFE50:
 904              		.section	.text.I2C_CalculatePEC,"ax",%progbits
 905              		.align	2
 906              		.global	I2C_CalculatePEC
 907              		.thumb
 908              		.thumb_func
 910              	I2C_CalculatePEC:
 911              	.LFB51:
 793:.\StdPeriphLib\src/stm32f10x_i2c.c ****   }
 794:.\StdPeriphLib\src/stm32f10x_i2c.c **** }
 795:.\StdPeriphLib\src/stm32f10x_i2c.c **** 
 796:.\StdPeriphLib\src/stm32f10x_i2c.c **** /**
 797:.\StdPeriphLib\src/stm32f10x_i2c.c ****   * @brief  Enables or disables the PEC value calculation of the transferred bytes.
 798:.\StdPeriphLib\src/stm32f10x_i2c.c ****   * @param  I2Cx: where x can be 1 or 2 to select the I2C peripheral.
 799:.\StdPeriphLib\src/stm32f10x_i2c.c ****   * @param  NewState: new state of the I2Cx PEC value calculation.
 800:.\StdPeriphLib\src/stm32f10x_i2c.c ****   *   This parameter can be: ENABLE or DISABLE.
 801:.\StdPeriphLib\src/stm32f10x_i2c.c ****   * @retval None
 802:.\StdPeriphLib\src/stm32f10x_i2c.c ****   */
 803:.\StdPeriphLib\src/stm32f10x_i2c.c **** void I2C_CalculatePEC(I2C_TypeDef* I2Cx, FunctionalState NewState)
 804:.\StdPeriphLib\src/stm32f10x_i2c.c **** {
 912              		.loc 1 804 0
 913              		.cfi_startproc
 914              		@ args = 0, pretend = 0, frame = 0
 915              		@ frame_needed = 0, uses_anonymous_args = 0
 916              		@ link register save eliminated.
 917              	.LVL72:
 805:.\StdPeriphLib\src/stm32f10x_i2c.c ****   /* Check the parameters */
 806:.\StdPeriphLib\src/stm32f10x_i2c.c ****   assert_param(IS_I2C_ALL_PERIPH(I2Cx));
 807:.\StdPeriphLib\src/stm32f10x_i2c.c ****   assert_param(IS_FUNCTIONAL_STATE(NewState));
 808:.\StdPeriphLib\src/stm32f10x_i2c.c ****   if (NewState != DISABLE)
 918              		.loc 1 808 0
 919 0000 29B1     		cbz	r1, .L69
 809:.\StdPeriphLib\src/stm32f10x_i2c.c ****   {
 810:.\StdPeriphLib\src/stm32f10x_i2c.c ****     /* Enable the selected I2C PEC calculation */
 811:.\StdPeriphLib\src/stm32f10x_i2c.c ****     I2Cx->CR1 |= CR1_ENPEC_Set;
 920              		.loc 1 811 0
 921 0002 0388     		ldrh	r3, [r0]
 922 0004 9BB2     		uxth	r3, r3
 923 0006 43F02003 		orr	r3, r3, #32
 924 000a 0380     		strh	r3, [r0]	@ movhi
 925 000c 7047     		bx	lr
 926              	.L69:
 812:.\StdPeriphLib\src/stm32f10x_i2c.c ****   }
 813:.\StdPeriphLib\src/stm32f10x_i2c.c ****   else
 814:.\StdPeriphLib\src/stm32f10x_i2c.c ****   {
 815:.\StdPeriphLib\src/stm32f10x_i2c.c ****     /* Disable the selected I2C PEC calculation */
 816:.\StdPeriphLib\src/stm32f10x_i2c.c ****     I2Cx->CR1 &= CR1_ENPEC_Reset;
 927              		.loc 1 816 0
 928 000e 0388     		ldrh	r3, [r0]
 929 0010 23F02003 		bic	r3, r3, #32
 930 0014 1B04     		lsls	r3, r3, #16
 931 0016 1B0C     		lsrs	r3, r3, #16
 932 0018 0380     		strh	r3, [r0]	@ movhi
 933 001a 7047     		bx	lr
 934              		.cfi_endproc
 935              	.LFE51:
 937              		.section	.text.I2C_GetPEC,"ax",%progbits
 938              		.align	2
 939              		.global	I2C_GetPEC
 940              		.thumb
 941              		.thumb_func
 943              	I2C_GetPEC:
 944              	.LFB52:
 817:.\StdPeriphLib\src/stm32f10x_i2c.c ****   }
 818:.\StdPeriphLib\src/stm32f10x_i2c.c **** }
 819:.\StdPeriphLib\src/stm32f10x_i2c.c **** 
 820:.\StdPeriphLib\src/stm32f10x_i2c.c **** /**
 821:.\StdPeriphLib\src/stm32f10x_i2c.c ****   * @brief  Returns the PEC value for the specified I2C.
 822:.\StdPeriphLib\src/stm32f10x_i2c.c ****   * @param  I2Cx: where x can be 1 or 2 to select the I2C peripheral.
 823:.\StdPeriphLib\src/stm32f10x_i2c.c ****   * @retval The PEC value.
 824:.\StdPeriphLib\src/stm32f10x_i2c.c ****   */
 825:.\StdPeriphLib\src/stm32f10x_i2c.c **** uint8_t I2C_GetPEC(I2C_TypeDef* I2Cx)
 826:.\StdPeriphLib\src/stm32f10x_i2c.c **** {
 945              		.loc 1 826 0
 946              		.cfi_startproc
 947              		@ args = 0, pretend = 0, frame = 0
 948              		@ frame_needed = 0, uses_anonymous_args = 0
 949              		@ link register save eliminated.
 950              	.LVL73:
 827:.\StdPeriphLib\src/stm32f10x_i2c.c ****   /* Check the parameters */
 828:.\StdPeriphLib\src/stm32f10x_i2c.c ****   assert_param(IS_I2C_ALL_PERIPH(I2Cx));
 829:.\StdPeriphLib\src/stm32f10x_i2c.c ****   /* Return the selected I2C PEC value */
 830:.\StdPeriphLib\src/stm32f10x_i2c.c ****   return ((I2Cx->SR2) >> 8);
 951              		.loc 1 830 0
 952 0000 008B     		ldrh	r0, [r0, #24]
 953              	.LVL74:
 831:.\StdPeriphLib\src/stm32f10x_i2c.c **** }
 954              		.loc 1 831 0
 955 0002 C0F30720 		ubfx	r0, r0, #8, #8
 956 0006 7047     		bx	lr
 957              		.cfi_endproc
 958              	.LFE52:
 960              		.section	.text.I2C_ARPCmd,"ax",%progbits
 961              		.align	2
 962              		.global	I2C_ARPCmd
 963              		.thumb
 964              		.thumb_func
 966              	I2C_ARPCmd:
 967              	.LFB53:
 832:.\StdPeriphLib\src/stm32f10x_i2c.c **** 
 833:.\StdPeriphLib\src/stm32f10x_i2c.c **** /**
 834:.\StdPeriphLib\src/stm32f10x_i2c.c ****   * @brief  Enables or disables the specified I2C ARP.
 835:.\StdPeriphLib\src/stm32f10x_i2c.c ****   * @param  I2Cx: where x can be 1 or 2 to select the I2C peripheral.
 836:.\StdPeriphLib\src/stm32f10x_i2c.c ****   * @param  NewState: new state of the I2Cx ARP. 
 837:.\StdPeriphLib\src/stm32f10x_i2c.c ****   *   This parameter can be: ENABLE or DISABLE.
 838:.\StdPeriphLib\src/stm32f10x_i2c.c ****   * @retval None
 839:.\StdPeriphLib\src/stm32f10x_i2c.c ****   */
 840:.\StdPeriphLib\src/stm32f10x_i2c.c **** void I2C_ARPCmd(I2C_TypeDef* I2Cx, FunctionalState NewState)
 841:.\StdPeriphLib\src/stm32f10x_i2c.c **** {
 968              		.loc 1 841 0
 969              		.cfi_startproc
 970              		@ args = 0, pretend = 0, frame = 0
 971              		@ frame_needed = 0, uses_anonymous_args = 0
 972              		@ link register save eliminated.
 973              	.LVL75:
 842:.\StdPeriphLib\src/stm32f10x_i2c.c ****   /* Check the parameters */
 843:.\StdPeriphLib\src/stm32f10x_i2c.c ****   assert_param(IS_I2C_ALL_PERIPH(I2Cx));
 844:.\StdPeriphLib\src/stm32f10x_i2c.c ****   assert_param(IS_FUNCTIONAL_STATE(NewState));
 845:.\StdPeriphLib\src/stm32f10x_i2c.c ****   if (NewState != DISABLE)
 974              		.loc 1 845 0
 975 0000 29B1     		cbz	r1, .L73
 846:.\StdPeriphLib\src/stm32f10x_i2c.c ****   {
 847:.\StdPeriphLib\src/stm32f10x_i2c.c ****     /* Enable the selected I2C ARP */
 848:.\StdPeriphLib\src/stm32f10x_i2c.c ****     I2Cx->CR1 |= CR1_ENARP_Set;
 976              		.loc 1 848 0
 977 0002 0388     		ldrh	r3, [r0]
 978 0004 9BB2     		uxth	r3, r3
 979 0006 43F01003 		orr	r3, r3, #16
 980 000a 0380     		strh	r3, [r0]	@ movhi
 981 000c 7047     		bx	lr
 982              	.L73:
 849:.\StdPeriphLib\src/stm32f10x_i2c.c ****   }
 850:.\StdPeriphLib\src/stm32f10x_i2c.c ****   else
 851:.\StdPeriphLib\src/stm32f10x_i2c.c ****   {
 852:.\StdPeriphLib\src/stm32f10x_i2c.c ****     /* Disable the selected I2C ARP */
 853:.\StdPeriphLib\src/stm32f10x_i2c.c ****     I2Cx->CR1 &= CR1_ENARP_Reset;
 983              		.loc 1 853 0
 984 000e 0388     		ldrh	r3, [r0]
 985 0010 23F01003 		bic	r3, r3, #16
 986 0014 1B04     		lsls	r3, r3, #16
 987 0016 1B0C     		lsrs	r3, r3, #16
 988 0018 0380     		strh	r3, [r0]	@ movhi
 989 001a 7047     		bx	lr
 990              		.cfi_endproc
 991              	.LFE53:
 993              		.section	.text.I2C_StretchClockCmd,"ax",%progbits
 994              		.align	2
 995              		.global	I2C_StretchClockCmd
 996              		.thumb
 997              		.thumb_func
 999              	I2C_StretchClockCmd:
 1000              	.LFB54:
 854:.\StdPeriphLib\src/stm32f10x_i2c.c ****   }
 855:.\StdPeriphLib\src/stm32f10x_i2c.c **** }
 856:.\StdPeriphLib\src/stm32f10x_i2c.c **** 
 857:.\StdPeriphLib\src/stm32f10x_i2c.c **** /**
 858:.\StdPeriphLib\src/stm32f10x_i2c.c ****   * @brief  Enables or disables the specified I2C Clock stretching.
 859:.\StdPeriphLib\src/stm32f10x_i2c.c ****   * @param  I2Cx: where x can be 1 or 2 to select the I2C peripheral.
 860:.\StdPeriphLib\src/stm32f10x_i2c.c ****   * @param  NewState: new state of the I2Cx Clock stretching.
 861:.\StdPeriphLib\src/stm32f10x_i2c.c ****   *   This parameter can be: ENABLE or DISABLE.
 862:.\StdPeriphLib\src/stm32f10x_i2c.c ****   * @retval None
 863:.\StdPeriphLib\src/stm32f10x_i2c.c ****   */
 864:.\StdPeriphLib\src/stm32f10x_i2c.c **** void I2C_StretchClockCmd(I2C_TypeDef* I2Cx, FunctionalState NewState)
 865:.\StdPeriphLib\src/stm32f10x_i2c.c **** {
 1001              		.loc 1 865 0
 1002              		.cfi_startproc
 1003              		@ args = 0, pretend = 0, frame = 0
 1004              		@ frame_needed = 0, uses_anonymous_args = 0
 1005              		@ link register save eliminated.
 1006              	.LVL76:
 866:.\StdPeriphLib\src/stm32f10x_i2c.c ****   /* Check the parameters */
 867:.\StdPeriphLib\src/stm32f10x_i2c.c ****   assert_param(IS_I2C_ALL_PERIPH(I2Cx));
 868:.\StdPeriphLib\src/stm32f10x_i2c.c ****   assert_param(IS_FUNCTIONAL_STATE(NewState));
 869:.\StdPeriphLib\src/stm32f10x_i2c.c ****   if (NewState == DISABLE)
 1007              		.loc 1 869 0
 1008 0000 29B9     		cbnz	r1, .L76
 870:.\StdPeriphLib\src/stm32f10x_i2c.c ****   {
 871:.\StdPeriphLib\src/stm32f10x_i2c.c ****     /* Enable the selected I2C Clock stretching */
 872:.\StdPeriphLib\src/stm32f10x_i2c.c ****     I2Cx->CR1 |= CR1_NOSTRETCH_Set;
 1009              		.loc 1 872 0
 1010 0002 0388     		ldrh	r3, [r0]
 1011 0004 9BB2     		uxth	r3, r3
 1012 0006 43F08003 		orr	r3, r3, #128
 1013 000a 0380     		strh	r3, [r0]	@ movhi
 1014 000c 7047     		bx	lr
 1015              	.L76:
 873:.\StdPeriphLib\src/stm32f10x_i2c.c ****   }
 874:.\StdPeriphLib\src/stm32f10x_i2c.c ****   else
 875:.\StdPeriphLib\src/stm32f10x_i2c.c ****   {
 876:.\StdPeriphLib\src/stm32f10x_i2c.c ****     /* Disable the selected I2C Clock stretching */
 877:.\StdPeriphLib\src/stm32f10x_i2c.c ****     I2Cx->CR1 &= CR1_NOSTRETCH_Reset;
 1016              		.loc 1 877 0
 1017 000e 0388     		ldrh	r3, [r0]
 1018 0010 23F08003 		bic	r3, r3, #128
 1019 0014 1B04     		lsls	r3, r3, #16
 1020 0016 1B0C     		lsrs	r3, r3, #16
 1021 0018 0380     		strh	r3, [r0]	@ movhi
 1022 001a 7047     		bx	lr
 1023              		.cfi_endproc
 1024              	.LFE54:
 1026              		.section	.text.I2C_FastModeDutyCycleConfig,"ax",%progbits
 1027              		.align	2
 1028              		.global	I2C_FastModeDutyCycleConfig
 1029              		.thumb
 1030              		.thumb_func
 1032              	I2C_FastModeDutyCycleConfig:
 1033              	.LFB55:
 878:.\StdPeriphLib\src/stm32f10x_i2c.c ****   }
 879:.\StdPeriphLib\src/stm32f10x_i2c.c **** }
 880:.\StdPeriphLib\src/stm32f10x_i2c.c **** 
 881:.\StdPeriphLib\src/stm32f10x_i2c.c **** /**
 882:.\StdPeriphLib\src/stm32f10x_i2c.c ****   * @brief  Selects the specified I2C fast mode duty cycle.
 883:.\StdPeriphLib\src/stm32f10x_i2c.c ****   * @param  I2Cx: where x can be 1 or 2 to select the I2C peripheral.
 884:.\StdPeriphLib\src/stm32f10x_i2c.c ****   * @param  I2C_DutyCycle: specifies the fast mode duty cycle.
 885:.\StdPeriphLib\src/stm32f10x_i2c.c ****   *   This parameter can be one of the following values:
 886:.\StdPeriphLib\src/stm32f10x_i2c.c ****   *     @arg I2C_DutyCycle_2: I2C fast mode Tlow/Thigh = 2
 887:.\StdPeriphLib\src/stm32f10x_i2c.c ****   *     @arg I2C_DutyCycle_16_9: I2C fast mode Tlow/Thigh = 16/9
 888:.\StdPeriphLib\src/stm32f10x_i2c.c ****   * @retval None
 889:.\StdPeriphLib\src/stm32f10x_i2c.c ****   */
 890:.\StdPeriphLib\src/stm32f10x_i2c.c **** void I2C_FastModeDutyCycleConfig(I2C_TypeDef* I2Cx, uint16_t I2C_DutyCycle)
 891:.\StdPeriphLib\src/stm32f10x_i2c.c **** {
 1034              		.loc 1 891 0
 1035              		.cfi_startproc
 1036              		@ args = 0, pretend = 0, frame = 0
 1037              		@ frame_needed = 0, uses_anonymous_args = 0
 1038              		@ link register save eliminated.
 1039              	.LVL77:
 892:.\StdPeriphLib\src/stm32f10x_i2c.c ****   /* Check the parameters */
 893:.\StdPeriphLib\src/stm32f10x_i2c.c ****   assert_param(IS_I2C_ALL_PERIPH(I2Cx));
 894:.\StdPeriphLib\src/stm32f10x_i2c.c ****   assert_param(IS_I2C_DUTY_CYCLE(I2C_DutyCycle));
 895:.\StdPeriphLib\src/stm32f10x_i2c.c ****   if (I2C_DutyCycle != I2C_DutyCycle_16_9)
 1040              		.loc 1 895 0
 1041 0000 B1F5804F 		cmp	r1, #16384
 1042 0004 06D0     		beq	.L79
 896:.\StdPeriphLib\src/stm32f10x_i2c.c ****   {
 897:.\StdPeriphLib\src/stm32f10x_i2c.c ****     /* I2C fast mode Tlow/Thigh=2 */
 898:.\StdPeriphLib\src/stm32f10x_i2c.c ****     I2Cx->CCR &= I2C_DutyCycle_2;
 1043              		.loc 1 898 0
 1044 0006 838B     		ldrh	r3, [r0, #28]
 1045 0008 23F48043 		bic	r3, r3, #16384
 1046 000c 1B04     		lsls	r3, r3, #16
 1047 000e 1B0C     		lsrs	r3, r3, #16
 1048 0010 8383     		strh	r3, [r0, #28]	@ movhi
 1049 0012 7047     		bx	lr
 1050              	.L79:
 899:.\StdPeriphLib\src/stm32f10x_i2c.c ****   }
 900:.\StdPeriphLib\src/stm32f10x_i2c.c ****   else
 901:.\StdPeriphLib\src/stm32f10x_i2c.c ****   {
 902:.\StdPeriphLib\src/stm32f10x_i2c.c ****     /* I2C fast mode Tlow/Thigh=16/9 */
 903:.\StdPeriphLib\src/stm32f10x_i2c.c ****     I2Cx->CCR |= I2C_DutyCycle_16_9;
 1051              		.loc 1 903 0
 1052 0014 838B     		ldrh	r3, [r0, #28]
 1053 0016 9BB2     		uxth	r3, r3
 1054 0018 43F48043 		orr	r3, r3, #16384
 1055 001c 8383     		strh	r3, [r0, #28]	@ movhi
 1056 001e 7047     		bx	lr
 1057              		.cfi_endproc
 1058              	.LFE55:
 1060              		.section	.text.I2C_CheckEvent,"ax",%progbits
 1061              		.align	2
 1062              		.global	I2C_CheckEvent
 1063              		.thumb
 1064              		.thumb_func
 1066              	I2C_CheckEvent:
 1067              	.LFB56:
 904:.\StdPeriphLib\src/stm32f10x_i2c.c ****   }
 905:.\StdPeriphLib\src/stm32f10x_i2c.c **** }
 906:.\StdPeriphLib\src/stm32f10x_i2c.c **** 
 907:.\StdPeriphLib\src/stm32f10x_i2c.c **** 
 908:.\StdPeriphLib\src/stm32f10x_i2c.c **** 
 909:.\StdPeriphLib\src/stm32f10x_i2c.c **** /**
 910:.\StdPeriphLib\src/stm32f10x_i2c.c ****  * @brief
 911:.\StdPeriphLib\src/stm32f10x_i2c.c ****  ****************************************************************************************
 912:.\StdPeriphLib\src/stm32f10x_i2c.c ****  *
 913:.\StdPeriphLib\src/stm32f10x_i2c.c ****  *                         I2C State Monitoring Functions
 914:.\StdPeriphLib\src/stm32f10x_i2c.c ****  *                       
 915:.\StdPeriphLib\src/stm32f10x_i2c.c ****  ****************************************************************************************   
 916:.\StdPeriphLib\src/stm32f10x_i2c.c ****  * This I2C driver provides three different ways for I2C state monitoring
 917:.\StdPeriphLib\src/stm32f10x_i2c.c ****  *  depending on the application requirements and constraints:
 918:.\StdPeriphLib\src/stm32f10x_i2c.c ****  *        
 919:.\StdPeriphLib\src/stm32f10x_i2c.c ****  *  
 920:.\StdPeriphLib\src/stm32f10x_i2c.c ****  * 1) Basic state monitoring:
 921:.\StdPeriphLib\src/stm32f10x_i2c.c ****  *    Using I2C_CheckEvent() function:
 922:.\StdPeriphLib\src/stm32f10x_i2c.c ****  *    It compares the status registers (SR1 and SR2) content to a given event
 923:.\StdPeriphLib\src/stm32f10x_i2c.c ****  *    (can be the combination of one or more flags).
 924:.\StdPeriphLib\src/stm32f10x_i2c.c ****  *    It returns SUCCESS if the current status includes the given flags 
 925:.\StdPeriphLib\src/stm32f10x_i2c.c ****  *    and returns ERROR if one or more flags are missing in the current status.
 926:.\StdPeriphLib\src/stm32f10x_i2c.c ****  *    - When to use:
 927:.\StdPeriphLib\src/stm32f10x_i2c.c ****  *      - This function is suitable for most applications as well as for startup 
 928:.\StdPeriphLib\src/stm32f10x_i2c.c ****  *      activity since the events are fully described in the product reference manual 
 929:.\StdPeriphLib\src/stm32f10x_i2c.c ****  *      (RM0008).
 930:.\StdPeriphLib\src/stm32f10x_i2c.c ****  *      - It is also suitable for users who need to define their own events.
 931:.\StdPeriphLib\src/stm32f10x_i2c.c ****  *    - Limitations:
 932:.\StdPeriphLib\src/stm32f10x_i2c.c ****  *      - If an error occurs (ie. error flags are set besides to the monitored flags),
 933:.\StdPeriphLib\src/stm32f10x_i2c.c ****  *        the I2C_CheckEvent() function may return SUCCESS despite the communication
 934:.\StdPeriphLib\src/stm32f10x_i2c.c ****  *        hold or corrupted real state. 
 935:.\StdPeriphLib\src/stm32f10x_i2c.c ****  *        In this case, it is advised to use error interrupts to monitor the error
 936:.\StdPeriphLib\src/stm32f10x_i2c.c ****  *        events and handle them in the interrupt IRQ handler.
 937:.\StdPeriphLib\src/stm32f10x_i2c.c ****  *        
 938:.\StdPeriphLib\src/stm32f10x_i2c.c ****  *        @note 
 939:.\StdPeriphLib\src/stm32f10x_i2c.c ****  *        For error management, it is advised to use the following functions:
 940:.\StdPeriphLib\src/stm32f10x_i2c.c ****  *          - I2C_ITConfig() to configure and enable the error interrupts (I2C_IT_ERR).
 941:.\StdPeriphLib\src/stm32f10x_i2c.c ****  *          - I2Cx_ER_IRQHandler() which is called when the error interrupt occurs.
 942:.\StdPeriphLib\src/stm32f10x_i2c.c ****  *            Where x is the peripheral instance (I2C1, I2C2 ...)
 943:.\StdPeriphLib\src/stm32f10x_i2c.c ****  *          - I2C_GetFlagStatus() or I2C_GetITStatus() to be called into I2Cx_ER_IRQHandler() 
 944:.\StdPeriphLib\src/stm32f10x_i2c.c ****  *            in order to determine which error occured.
 945:.\StdPeriphLib\src/stm32f10x_i2c.c ****  *          - I2C_ClearFlag() or I2C_ClearITPendingBit() and/or I2C_SoftwareResetCmd()
 946:.\StdPeriphLib\src/stm32f10x_i2c.c ****  *            and/or I2C_GenerateStop() in order to clear the error flag and source,
 947:.\StdPeriphLib\src/stm32f10x_i2c.c ****  *            and return to correct communication status.
 948:.\StdPeriphLib\src/stm32f10x_i2c.c ****  *            
 949:.\StdPeriphLib\src/stm32f10x_i2c.c ****  *
 950:.\StdPeriphLib\src/stm32f10x_i2c.c ****  *  2) Advanced state monitoring:
 951:.\StdPeriphLib\src/stm32f10x_i2c.c ****  *     Using the function I2C_GetLastEvent() which returns the image of both status 
 952:.\StdPeriphLib\src/stm32f10x_i2c.c ****  *     registers in a single word (uint32_t) (Status Register 2 value is shifted left 
 953:.\StdPeriphLib\src/stm32f10x_i2c.c ****  *     by 16 bits and concatenated to Status Register 1).
 954:.\StdPeriphLib\src/stm32f10x_i2c.c ****  *     - When to use:
 955:.\StdPeriphLib\src/stm32f10x_i2c.c ****  *       - This function is suitable for the same applications above but it allows to
 956:.\StdPeriphLib\src/stm32f10x_i2c.c ****  *         overcome the mentioned limitation of I2C_GetFlagStatus() function.
 957:.\StdPeriphLib\src/stm32f10x_i2c.c ****  *         The returned value could be compared to events already defined in the 
 958:.\StdPeriphLib\src/stm32f10x_i2c.c ****  *         library (stm32f10x_i2c.h) or to custom values defined by user.
 959:.\StdPeriphLib\src/stm32f10x_i2c.c ****  *       - This function is suitable when multiple flags are monitored at the same time.
 960:.\StdPeriphLib\src/stm32f10x_i2c.c ****  *       - At the opposite of I2C_CheckEvent() function, this function allows user to
 961:.\StdPeriphLib\src/stm32f10x_i2c.c ****  *         choose when an event is accepted (when all events flags are set and no 
 962:.\StdPeriphLib\src/stm32f10x_i2c.c ****  *         other flags are set or just when the needed flags are set like 
 963:.\StdPeriphLib\src/stm32f10x_i2c.c ****  *         I2C_CheckEvent() function).
 964:.\StdPeriphLib\src/stm32f10x_i2c.c ****  *     - Limitations:
 965:.\StdPeriphLib\src/stm32f10x_i2c.c ****  *       - User may need to define his own events.
 966:.\StdPeriphLib\src/stm32f10x_i2c.c ****  *       - Same remark concerning the error management is applicable for this 
 967:.\StdPeriphLib\src/stm32f10x_i2c.c ****  *         function if user decides to check only regular communication flags (and 
 968:.\StdPeriphLib\src/stm32f10x_i2c.c ****  *         ignores error flags).
 969:.\StdPeriphLib\src/stm32f10x_i2c.c ****  *     
 970:.\StdPeriphLib\src/stm32f10x_i2c.c ****  *
 971:.\StdPeriphLib\src/stm32f10x_i2c.c ****  *  3) Flag-based state monitoring:
 972:.\StdPeriphLib\src/stm32f10x_i2c.c ****  *     Using the function I2C_GetFlagStatus() which simply returns the status of 
 973:.\StdPeriphLib\src/stm32f10x_i2c.c ****  *     one single flag (ie. I2C_FLAG_RXNE ...). 
 974:.\StdPeriphLib\src/stm32f10x_i2c.c ****  *     - When to use:
 975:.\StdPeriphLib\src/stm32f10x_i2c.c ****  *        - This function could be used for specific applications or in debug phase.
 976:.\StdPeriphLib\src/stm32f10x_i2c.c ****  *        - It is suitable when only one flag checking is needed (most I2C events 
 977:.\StdPeriphLib\src/stm32f10x_i2c.c ****  *          are monitored through multiple flags).
 978:.\StdPeriphLib\src/stm32f10x_i2c.c ****  *     - Limitations: 
 979:.\StdPeriphLib\src/stm32f10x_i2c.c ****  *        - When calling this function, the Status register is accessed. Some flags are
 980:.\StdPeriphLib\src/stm32f10x_i2c.c ****  *          cleared when the status register is accessed. So checking the status
 981:.\StdPeriphLib\src/stm32f10x_i2c.c ****  *          of one Flag, may clear other ones.
 982:.\StdPeriphLib\src/stm32f10x_i2c.c ****  *        - Function may need to be called twice or more in order to monitor one 
 983:.\StdPeriphLib\src/stm32f10x_i2c.c ****  *          single event.
 984:.\StdPeriphLib\src/stm32f10x_i2c.c ****  *
 985:.\StdPeriphLib\src/stm32f10x_i2c.c ****  *  For detailed description of Events, please refer to section I2C_Events in 
 986:.\StdPeriphLib\src/stm32f10x_i2c.c ****  *  stm32f10x_i2c.h file.
 987:.\StdPeriphLib\src/stm32f10x_i2c.c ****  *  
 988:.\StdPeriphLib\src/stm32f10x_i2c.c ****  */
 989:.\StdPeriphLib\src/stm32f10x_i2c.c **** 
 990:.\StdPeriphLib\src/stm32f10x_i2c.c **** /**
 991:.\StdPeriphLib\src/stm32f10x_i2c.c ****  * 
 992:.\StdPeriphLib\src/stm32f10x_i2c.c ****  *  1) Basic state monitoring
 993:.\StdPeriphLib\src/stm32f10x_i2c.c ****  *******************************************************************************
 994:.\StdPeriphLib\src/stm32f10x_i2c.c ****  */
 995:.\StdPeriphLib\src/stm32f10x_i2c.c **** 
 996:.\StdPeriphLib\src/stm32f10x_i2c.c **** /**
 997:.\StdPeriphLib\src/stm32f10x_i2c.c ****   * @brief  Checks whether the last I2Cx Event is equal to the one passed
 998:.\StdPeriphLib\src/stm32f10x_i2c.c ****   *   as parameter.
 999:.\StdPeriphLib\src/stm32f10x_i2c.c ****   * @param  I2Cx: where x can be 1 or 2 to select the I2C peripheral.
1000:.\StdPeriphLib\src/stm32f10x_i2c.c ****   * @param  I2C_EVENT: specifies the event to be checked. 
1001:.\StdPeriphLib\src/stm32f10x_i2c.c ****   *   This parameter can be one of the following values:
1002:.\StdPeriphLib\src/stm32f10x_i2c.c ****   *     @arg I2C_EVENT_SLAVE_TRANSMITTER_ADDRESS_MATCHED           : EV1
1003:.\StdPeriphLib\src/stm32f10x_i2c.c ****   *     @arg I2C_EVENT_SLAVE_RECEIVER_ADDRESS_MATCHED              : EV1
1004:.\StdPeriphLib\src/stm32f10x_i2c.c ****   *     @arg I2C_EVENT_SLAVE_TRANSMITTER_SECONDADDRESS_MATCHED     : EV1
1005:.\StdPeriphLib\src/stm32f10x_i2c.c ****   *     @arg I2C_EVENT_SLAVE_RECEIVER_SECONDADDRESS_MATCHED        : EV1
1006:.\StdPeriphLib\src/stm32f10x_i2c.c ****   *     @arg I2C_EVENT_SLAVE_GENERALCALLADDRESS_MATCHED            : EV1
1007:.\StdPeriphLib\src/stm32f10x_i2c.c ****   *     @arg I2C_EVENT_SLAVE_BYTE_RECEIVED                         : EV2
1008:.\StdPeriphLib\src/stm32f10x_i2c.c ****   *     @arg (I2C_EVENT_SLAVE_BYTE_RECEIVED | I2C_FLAG_DUALF)      : EV2
1009:.\StdPeriphLib\src/stm32f10x_i2c.c ****   *     @arg (I2C_EVENT_SLAVE_BYTE_RECEIVED | I2C_FLAG_GENCALL)    : EV2
1010:.\StdPeriphLib\src/stm32f10x_i2c.c ****   *     @arg I2C_EVENT_SLAVE_BYTE_TRANSMITTED                      : EV3
1011:.\StdPeriphLib\src/stm32f10x_i2c.c ****   *     @arg (I2C_EVENT_SLAVE_BYTE_TRANSMITTED | I2C_FLAG_DUALF)   : EV3
1012:.\StdPeriphLib\src/stm32f10x_i2c.c ****   *     @arg (I2C_EVENT_SLAVE_BYTE_TRANSMITTED | I2C_FLAG_GENCALL) : EV3
1013:.\StdPeriphLib\src/stm32f10x_i2c.c ****   *     @arg I2C_EVENT_SLAVE_ACK_FAILURE                           : EV3_2
1014:.\StdPeriphLib\src/stm32f10x_i2c.c ****   *     @arg I2C_EVENT_SLAVE_STOP_DETECTED                         : EV4
1015:.\StdPeriphLib\src/stm32f10x_i2c.c ****   *     @arg I2C_EVENT_MASTER_MODE_SELECT                          : EV5
1016:.\StdPeriphLib\src/stm32f10x_i2c.c ****   *     @arg I2C_EVENT_MASTER_TRANSMITTER_MODE_SELECTED            : EV6     
1017:.\StdPeriphLib\src/stm32f10x_i2c.c ****   *     @arg I2C_EVENT_MASTER_RECEIVER_MODE_SELECTED               : EV6
1018:.\StdPeriphLib\src/stm32f10x_i2c.c ****   *     @arg I2C_EVENT_MASTER_BYTE_RECEIVED                        : EV7
1019:.\StdPeriphLib\src/stm32f10x_i2c.c ****   *     @arg I2C_EVENT_MASTER_BYTE_TRANSMITTING                    : EV8
1020:.\StdPeriphLib\src/stm32f10x_i2c.c ****   *     @arg I2C_EVENT_MASTER_BYTE_TRANSMITTED                     : EV8_2
1021:.\StdPeriphLib\src/stm32f10x_i2c.c ****   *     @arg I2C_EVENT_MASTER_MODE_ADDRESS10                       : EV9
1022:.\StdPeriphLib\src/stm32f10x_i2c.c ****   *     
1023:.\StdPeriphLib\src/stm32f10x_i2c.c ****   * @note: For detailed description of Events, please refer to section 
1024:.\StdPeriphLib\src/stm32f10x_i2c.c ****   *    I2C_Events in stm32f10x_i2c.h file.
1025:.\StdPeriphLib\src/stm32f10x_i2c.c ****   *    
1026:.\StdPeriphLib\src/stm32f10x_i2c.c ****   * @retval An ErrorStatus enumeration value:
1027:.\StdPeriphLib\src/stm32f10x_i2c.c ****   * - SUCCESS: Last event is equal to the I2C_EVENT
1028:.\StdPeriphLib\src/stm32f10x_i2c.c ****   * - ERROR: Last event is different from the I2C_EVENT
1029:.\StdPeriphLib\src/stm32f10x_i2c.c ****   */
1030:.\StdPeriphLib\src/stm32f10x_i2c.c **** ErrorStatus I2C_CheckEvent(I2C_TypeDef* I2Cx, uint32_t I2C_EVENT)
1031:.\StdPeriphLib\src/stm32f10x_i2c.c **** {
 1068              		.loc 1 1031 0
 1069              		.cfi_startproc
 1070              		@ args = 0, pretend = 0, frame = 0
 1071              		@ frame_needed = 0, uses_anonymous_args = 0
 1072              		@ link register save eliminated.
 1073              	.LVL78:
 1074 0000 10B4     		push	{r4}
 1075              	.LCFI6:
 1076              		.cfi_def_cfa_offset 4
 1077              		.cfi_offset 4, -4
 1078              	.LVL79:
1032:.\StdPeriphLib\src/stm32f10x_i2c.c ****   uint32_t lastevent = 0;
1033:.\StdPeriphLib\src/stm32f10x_i2c.c ****   uint32_t flag1 = 0, flag2 = 0;
1034:.\StdPeriphLib\src/stm32f10x_i2c.c ****   ErrorStatus status = ERROR;
1035:.\StdPeriphLib\src/stm32f10x_i2c.c **** 
1036:.\StdPeriphLib\src/stm32f10x_i2c.c ****   /* Check the parameters */
1037:.\StdPeriphLib\src/stm32f10x_i2c.c ****   assert_param(IS_I2C_ALL_PERIPH(I2Cx));
1038:.\StdPeriphLib\src/stm32f10x_i2c.c ****   assert_param(IS_I2C_EVENT(I2C_EVENT));
1039:.\StdPeriphLib\src/stm32f10x_i2c.c **** 
1040:.\StdPeriphLib\src/stm32f10x_i2c.c ****   /* Read the I2Cx status register */
1041:.\StdPeriphLib\src/stm32f10x_i2c.c ****   flag1 = I2Cx->SR1;
 1079              		.loc 1 1041 0
 1080 0002 838A     		ldrh	r3, [r0, #20]
 1081 0004 9AB2     		uxth	r2, r3
 1082              	.LVL80:
1042:.\StdPeriphLib\src/stm32f10x_i2c.c ****   flag2 = I2Cx->SR2;
 1083              		.loc 1 1042 0
 1084 0006 038B     		ldrh	r3, [r0, #24]
 1085              	.LVL81:
 1086 0008 21F07F44 		bic	r4, r1, #-16777216
1043:.\StdPeriphLib\src/stm32f10x_i2c.c ****   flag2 = flag2 << 16;
1044:.\StdPeriphLib\src/stm32f10x_i2c.c **** 
1045:.\StdPeriphLib\src/stm32f10x_i2c.c ****   /* Get the last event value from I2C status register */
1046:.\StdPeriphLib\src/stm32f10x_i2c.c ****   lastevent = (flag1 | flag2) & FLAG_Mask;
 1087              		.loc 1 1046 0
 1088 000c 42EA0343 		orr	r3, r2, r3, lsl #16
 1089              	.LVL82:
1047:.\StdPeriphLib\src/stm32f10x_i2c.c **** 
1048:.\StdPeriphLib\src/stm32f10x_i2c.c ****   /* Check whether the last event contains the I2C_EVENT */
1049:.\StdPeriphLib\src/stm32f10x_i2c.c ****   if ((lastevent & I2C_EVENT) == I2C_EVENT)
 1090              		.loc 1 1049 0
 1091 0010 04EA0300 		and	r0, r4, r3
 1092              	.LVL83:
1050:.\StdPeriphLib\src/stm32f10x_i2c.c ****   {
1051:.\StdPeriphLib\src/stm32f10x_i2c.c ****     /* SUCCESS: last event is equal to I2C_EVENT */
1052:.\StdPeriphLib\src/stm32f10x_i2c.c ****     status = SUCCESS;
1053:.\StdPeriphLib\src/stm32f10x_i2c.c ****   }
1054:.\StdPeriphLib\src/stm32f10x_i2c.c ****   else
1055:.\StdPeriphLib\src/stm32f10x_i2c.c ****   {
1056:.\StdPeriphLib\src/stm32f10x_i2c.c ****     /* ERROR: last event is different from I2C_EVENT */
1057:.\StdPeriphLib\src/stm32f10x_i2c.c ****     status = ERROR;
1058:.\StdPeriphLib\src/stm32f10x_i2c.c ****   }
1059:.\StdPeriphLib\src/stm32f10x_i2c.c ****   /* Return status */
1060:.\StdPeriphLib\src/stm32f10x_i2c.c ****   return status;
1061:.\StdPeriphLib\src/stm32f10x_i2c.c **** }
 1093              		.loc 1 1061 0
 1094 0014 8142     		cmp	r1, r0
 1095 0016 14BF     		ite	ne
 1096 0018 0020     		movne	r0, #0
 1097 001a 0120     		moveq	r0, #1
 1098 001c 5DF8044B 		ldr	r4, [sp], #4
 1099              	.LCFI7:
 1100              		.cfi_restore 4
 1101              		.cfi_def_cfa_offset 0
 1102 0020 7047     		bx	lr
 1103              		.cfi_endproc
 1104              	.LFE56:
 1106 0022 00BF     		.section	.text.I2C_GetLastEvent,"ax",%progbits
 1107              		.align	2
 1108              		.global	I2C_GetLastEvent
 1109              		.thumb
 1110              		.thumb_func
 1112              	I2C_GetLastEvent:
 1113              	.LFB57:
1062:.\StdPeriphLib\src/stm32f10x_i2c.c **** 
1063:.\StdPeriphLib\src/stm32f10x_i2c.c **** /**
1064:.\StdPeriphLib\src/stm32f10x_i2c.c ****  * 
1065:.\StdPeriphLib\src/stm32f10x_i2c.c ****  *  2) Advanced state monitoring
1066:.\StdPeriphLib\src/stm32f10x_i2c.c ****  *******************************************************************************
1067:.\StdPeriphLib\src/stm32f10x_i2c.c ****  */
1068:.\StdPeriphLib\src/stm32f10x_i2c.c **** 
1069:.\StdPeriphLib\src/stm32f10x_i2c.c **** /**
1070:.\StdPeriphLib\src/stm32f10x_i2c.c ****   * @brief  Returns the last I2Cx Event.
1071:.\StdPeriphLib\src/stm32f10x_i2c.c ****   * @param  I2Cx: where x can be 1 or 2 to select the I2C peripheral.
1072:.\StdPeriphLib\src/stm32f10x_i2c.c ****   *     
1073:.\StdPeriphLib\src/stm32f10x_i2c.c ****   * @note: For detailed description of Events, please refer to section 
1074:.\StdPeriphLib\src/stm32f10x_i2c.c ****   *    I2C_Events in stm32f10x_i2c.h file.
1075:.\StdPeriphLib\src/stm32f10x_i2c.c ****   *    
1076:.\StdPeriphLib\src/stm32f10x_i2c.c ****   * @retval The last event
1077:.\StdPeriphLib\src/stm32f10x_i2c.c ****   */
1078:.\StdPeriphLib\src/stm32f10x_i2c.c **** uint32_t I2C_GetLastEvent(I2C_TypeDef* I2Cx)
1079:.\StdPeriphLib\src/stm32f10x_i2c.c **** {
 1114              		.loc 1 1079 0
 1115              		.cfi_startproc
 1116              		@ args = 0, pretend = 0, frame = 0
 1117              		@ frame_needed = 0, uses_anonymous_args = 0
 1118              		@ link register save eliminated.
 1119              	.LVL84:
1080:.\StdPeriphLib\src/stm32f10x_i2c.c ****   uint32_t lastevent = 0;
1081:.\StdPeriphLib\src/stm32f10x_i2c.c ****   uint32_t flag1 = 0, flag2 = 0;
1082:.\StdPeriphLib\src/stm32f10x_i2c.c **** 
1083:.\StdPeriphLib\src/stm32f10x_i2c.c ****   /* Check the parameters */
1084:.\StdPeriphLib\src/stm32f10x_i2c.c ****   assert_param(IS_I2C_ALL_PERIPH(I2Cx));
1085:.\StdPeriphLib\src/stm32f10x_i2c.c **** 
1086:.\StdPeriphLib\src/stm32f10x_i2c.c ****   /* Read the I2Cx status register */
1087:.\StdPeriphLib\src/stm32f10x_i2c.c ****   flag1 = I2Cx->SR1;
 1120              		.loc 1 1087 0
 1121 0000 838A     		ldrh	r3, [r0, #20]
 1122 0002 9BB2     		uxth	r3, r3
 1123              	.LVL85:
1088:.\StdPeriphLib\src/stm32f10x_i2c.c ****   flag2 = I2Cx->SR2;
 1124              		.loc 1 1088 0
 1125 0004 008B     		ldrh	r0, [r0, #24]
 1126              	.LVL86:
1089:.\StdPeriphLib\src/stm32f10x_i2c.c ****   flag2 = flag2 << 16;
1090:.\StdPeriphLib\src/stm32f10x_i2c.c **** 
1091:.\StdPeriphLib\src/stm32f10x_i2c.c ****   /* Get the last event value from I2C status register */
1092:.\StdPeriphLib\src/stm32f10x_i2c.c ****   lastevent = (flag1 | flag2) & FLAG_Mask;
 1127              		.loc 1 1092 0
 1128 0006 43EA0040 		orr	r0, r3, r0, lsl #16
 1129              	.LVL87:
1093:.\StdPeriphLib\src/stm32f10x_i2c.c **** 
1094:.\StdPeriphLib\src/stm32f10x_i2c.c ****   /* Return status */
1095:.\StdPeriphLib\src/stm32f10x_i2c.c ****   return lastevent;
1096:.\StdPeriphLib\src/stm32f10x_i2c.c **** }
 1130              		.loc 1 1096 0
 1131 000a 20F07F40 		bic	r0, r0, #-16777216
 1132 000e 7047     		bx	lr
 1133              		.cfi_endproc
 1134              	.LFE57:
 1136              		.section	.text.I2C_GetFlagStatus,"ax",%progbits
 1137              		.align	2
 1138              		.global	I2C_GetFlagStatus
 1139              		.thumb
 1140              		.thumb_func
 1142              	I2C_GetFlagStatus:
 1143              	.LFB58:
1097:.\StdPeriphLib\src/stm32f10x_i2c.c **** 
1098:.\StdPeriphLib\src/stm32f10x_i2c.c **** /**
1099:.\StdPeriphLib\src/stm32f10x_i2c.c ****  * 
1100:.\StdPeriphLib\src/stm32f10x_i2c.c ****  *  3) Flag-based state monitoring
1101:.\StdPeriphLib\src/stm32f10x_i2c.c ****  *******************************************************************************
1102:.\StdPeriphLib\src/stm32f10x_i2c.c ****  */
1103:.\StdPeriphLib\src/stm32f10x_i2c.c **** 
1104:.\StdPeriphLib\src/stm32f10x_i2c.c **** /**
1105:.\StdPeriphLib\src/stm32f10x_i2c.c ****   * @brief  Checks whether the specified I2C flag is set or not.
1106:.\StdPeriphLib\src/stm32f10x_i2c.c ****   * @param  I2Cx: where x can be 1 or 2 to select the I2C peripheral.
1107:.\StdPeriphLib\src/stm32f10x_i2c.c ****   * @param  I2C_FLAG: specifies the flag to check. 
1108:.\StdPeriphLib\src/stm32f10x_i2c.c ****   *   This parameter can be one of the following values:
1109:.\StdPeriphLib\src/stm32f10x_i2c.c ****   *     @arg I2C_FLAG_DUALF: Dual flag (Slave mode)
1110:.\StdPeriphLib\src/stm32f10x_i2c.c ****   *     @arg I2C_FLAG_SMBHOST: SMBus host header (Slave mode)
1111:.\StdPeriphLib\src/stm32f10x_i2c.c ****   *     @arg I2C_FLAG_SMBDEFAULT: SMBus default header (Slave mode)
1112:.\StdPeriphLib\src/stm32f10x_i2c.c ****   *     @arg I2C_FLAG_GENCALL: General call header flag (Slave mode)
1113:.\StdPeriphLib\src/stm32f10x_i2c.c ****   *     @arg I2C_FLAG_TRA: Transmitter/Receiver flag
1114:.\StdPeriphLib\src/stm32f10x_i2c.c ****   *     @arg I2C_FLAG_BUSY: Bus busy flag
1115:.\StdPeriphLib\src/stm32f10x_i2c.c ****   *     @arg I2C_FLAG_MSL: Master/Slave flag
1116:.\StdPeriphLib\src/stm32f10x_i2c.c ****   *     @arg I2C_FLAG_SMBALERT: SMBus Alert flag
1117:.\StdPeriphLib\src/stm32f10x_i2c.c ****   *     @arg I2C_FLAG_TIMEOUT: Timeout or Tlow error flag
1118:.\StdPeriphLib\src/stm32f10x_i2c.c ****   *     @arg I2C_FLAG_PECERR: PEC error in reception flag
1119:.\StdPeriphLib\src/stm32f10x_i2c.c ****   *     @arg I2C_FLAG_OVR: Overrun/Underrun flag (Slave mode)
1120:.\StdPeriphLib\src/stm32f10x_i2c.c ****   *     @arg I2C_FLAG_AF: Acknowledge failure flag
1121:.\StdPeriphLib\src/stm32f10x_i2c.c ****   *     @arg I2C_FLAG_ARLO: Arbitration lost flag (Master mode)
1122:.\StdPeriphLib\src/stm32f10x_i2c.c ****   *     @arg I2C_FLAG_BERR: Bus error flag
1123:.\StdPeriphLib\src/stm32f10x_i2c.c ****   *     @arg I2C_FLAG_TXE: Data register empty flag (Transmitter)
1124:.\StdPeriphLib\src/stm32f10x_i2c.c ****   *     @arg I2C_FLAG_RXNE: Data register not empty (Receiver) flag
1125:.\StdPeriphLib\src/stm32f10x_i2c.c ****   *     @arg I2C_FLAG_STOPF: Stop detection flag (Slave mode)
1126:.\StdPeriphLib\src/stm32f10x_i2c.c ****   *     @arg I2C_FLAG_ADD10: 10-bit header sent flag (Master mode)
1127:.\StdPeriphLib\src/stm32f10x_i2c.c ****   *     @arg I2C_FLAG_BTF: Byte transfer finished flag
1128:.\StdPeriphLib\src/stm32f10x_i2c.c ****   *     @arg I2C_FLAG_ADDR: Address sent flag (Master mode) "ADSL"
1129:.\StdPeriphLib\src/stm32f10x_i2c.c ****   *   Address matched flag (Slave mode)"ENDA"
1130:.\StdPeriphLib\src/stm32f10x_i2c.c ****   *     @arg I2C_FLAG_SB: Start bit flag (Master mode)
1131:.\StdPeriphLib\src/stm32f10x_i2c.c ****   * @retval The new state of I2C_FLAG (SET or RESET).
1132:.\StdPeriphLib\src/stm32f10x_i2c.c ****   */
1133:.\StdPeriphLib\src/stm32f10x_i2c.c **** FlagStatus I2C_GetFlagStatus(I2C_TypeDef* I2Cx, uint32_t I2C_FLAG)
1134:.\StdPeriphLib\src/stm32f10x_i2c.c **** {
 1144              		.loc 1 1134 0
 1145              		.cfi_startproc
 1146              		@ args = 0, pretend = 0, frame = 8
 1147              		@ frame_needed = 0, uses_anonymous_args = 0
 1148              		@ link register save eliminated.
 1149              	.LVL88:
 1150 0000 82B0     		sub	sp, sp, #8
 1151              	.LCFI8:
 1152              		.cfi_def_cfa_offset 8
 1153              	.LVL89:
1135:.\StdPeriphLib\src/stm32f10x_i2c.c ****   FlagStatus bitstatus = RESET;
1136:.\StdPeriphLib\src/stm32f10x_i2c.c ****   __IO uint32_t i2creg = 0, i2cxbase = 0;
 1154              		.loc 1 1136 0
 1155 0002 0023     		movs	r3, #0
 1156 0004 0193     		str	r3, [sp, #4]
 1157 0006 0093     		str	r3, [sp]
1137:.\StdPeriphLib\src/stm32f10x_i2c.c **** 
1138:.\StdPeriphLib\src/stm32f10x_i2c.c ****   /* Check the parameters */
1139:.\StdPeriphLib\src/stm32f10x_i2c.c ****   assert_param(IS_I2C_ALL_PERIPH(I2Cx));
1140:.\StdPeriphLib\src/stm32f10x_i2c.c ****   assert_param(IS_I2C_GET_FLAG(I2C_FLAG));
1141:.\StdPeriphLib\src/stm32f10x_i2c.c **** 
1142:.\StdPeriphLib\src/stm32f10x_i2c.c ****   /* Get the I2Cx peripheral base address */
1143:.\StdPeriphLib\src/stm32f10x_i2c.c ****   i2cxbase = (uint32_t)I2Cx;
 1158              		.loc 1 1143 0
 1159 0008 0090     		str	r0, [sp]
1144:.\StdPeriphLib\src/stm32f10x_i2c.c ****   
1145:.\StdPeriphLib\src/stm32f10x_i2c.c ****   /* Read flag register index */
1146:.\StdPeriphLib\src/stm32f10x_i2c.c ****   i2creg = I2C_FLAG >> 28;
 1160              		.loc 1 1146 0
 1161 000a 0B0F     		lsrs	r3, r1, #28
 1162 000c 0193     		str	r3, [sp, #4]
1147:.\StdPeriphLib\src/stm32f10x_i2c.c ****   
1148:.\StdPeriphLib\src/stm32f10x_i2c.c ****   /* Get bit[23:0] of the flag */
1149:.\StdPeriphLib\src/stm32f10x_i2c.c ****   I2C_FLAG &= FLAG_Mask;
 1163              		.loc 1 1149 0
 1164 000e 21F07F41 		bic	r1, r1, #-16777216
 1165              	.LVL90:
1150:.\StdPeriphLib\src/stm32f10x_i2c.c ****   
1151:.\StdPeriphLib\src/stm32f10x_i2c.c ****   if(i2creg != 0)
 1166              		.loc 1 1151 0
 1167 0012 019B     		ldr	r3, [sp, #4]
 1168 0014 1BB1     		cbz	r3, .L85
1152:.\StdPeriphLib\src/stm32f10x_i2c.c ****   {
1153:.\StdPeriphLib\src/stm32f10x_i2c.c ****     /* Get the I2Cx SR1 register address */
1154:.\StdPeriphLib\src/stm32f10x_i2c.c ****     i2cxbase += 0x14;
 1169              		.loc 1 1154 0
 1170 0016 009B     		ldr	r3, [sp]
 1171 0018 1433     		adds	r3, r3, #20
 1172 001a 0093     		str	r3, [sp]
 1173 001c 03E0     		b	.L86
 1174              	.L85:
1155:.\StdPeriphLib\src/stm32f10x_i2c.c ****   }
1156:.\StdPeriphLib\src/stm32f10x_i2c.c ****   else
1157:.\StdPeriphLib\src/stm32f10x_i2c.c ****   {
1158:.\StdPeriphLib\src/stm32f10x_i2c.c ****     /* Flag in I2Cx SR2 Register */
1159:.\StdPeriphLib\src/stm32f10x_i2c.c ****     I2C_FLAG = (uint32_t)(I2C_FLAG >> 16);
 1175              		.loc 1 1159 0
 1176 001e 090C     		lsrs	r1, r1, #16
 1177              	.LVL91:
1160:.\StdPeriphLib\src/stm32f10x_i2c.c ****     /* Get the I2Cx SR2 register address */
1161:.\StdPeriphLib\src/stm32f10x_i2c.c ****     i2cxbase += 0x18;
 1178              		.loc 1 1161 0
 1179 0020 009B     		ldr	r3, [sp]
 1180 0022 1833     		adds	r3, r3, #24
 1181 0024 0093     		str	r3, [sp]
 1182              	.L86:
1162:.\StdPeriphLib\src/stm32f10x_i2c.c ****   }
1163:.\StdPeriphLib\src/stm32f10x_i2c.c ****   
1164:.\StdPeriphLib\src/stm32f10x_i2c.c ****   if(((*(__IO uint32_t *)i2cxbase) & I2C_FLAG) != (uint32_t)RESET)
 1183              		.loc 1 1164 0
 1184 0026 009B     		ldr	r3, [sp]
 1185 0028 1B68     		ldr	r3, [r3]
 1186              	.LVL92:
 1187 002a 1942     		tst	r1, r3
1165:.\StdPeriphLib\src/stm32f10x_i2c.c ****   {
1166:.\StdPeriphLib\src/stm32f10x_i2c.c ****     /* I2C_FLAG is set */
1167:.\StdPeriphLib\src/stm32f10x_i2c.c ****     bitstatus = SET;
1168:.\StdPeriphLib\src/stm32f10x_i2c.c ****   }
1169:.\StdPeriphLib\src/stm32f10x_i2c.c ****   else
1170:.\StdPeriphLib\src/stm32f10x_i2c.c ****   {
1171:.\StdPeriphLib\src/stm32f10x_i2c.c ****     /* I2C_FLAG is reset */
1172:.\StdPeriphLib\src/stm32f10x_i2c.c ****     bitstatus = RESET;
1173:.\StdPeriphLib\src/stm32f10x_i2c.c ****   }
1174:.\StdPeriphLib\src/stm32f10x_i2c.c ****   
1175:.\StdPeriphLib\src/stm32f10x_i2c.c ****   /* Return the I2C_FLAG status */
1176:.\StdPeriphLib\src/stm32f10x_i2c.c ****   return  bitstatus;
1177:.\StdPeriphLib\src/stm32f10x_i2c.c **** }
 1188              		.loc 1 1177 0
 1189 002c 14BF     		ite	ne
 1190 002e 0120     		movne	r0, #1
 1191              	.LVL93:
 1192 0030 0020     		moveq	r0, #0
 1193 0032 02B0     		add	sp, sp, #8
 1194              	.LCFI9:
 1195              		.cfi_def_cfa_offset 0
 1196              		@ sp needed
 1197 0034 7047     		bx	lr
 1198              		.cfi_endproc
 1199              	.LFE58:
 1201 0036 00BF     		.section	.text.I2C_ClearFlag,"ax",%progbits
 1202              		.align	2
 1203              		.global	I2C_ClearFlag
 1204              		.thumb
 1205              		.thumb_func
 1207              	I2C_ClearFlag:
 1208              	.LFB59:
1178:.\StdPeriphLib\src/stm32f10x_i2c.c **** 
1179:.\StdPeriphLib\src/stm32f10x_i2c.c **** 
1180:.\StdPeriphLib\src/stm32f10x_i2c.c **** 
1181:.\StdPeriphLib\src/stm32f10x_i2c.c **** /**
1182:.\StdPeriphLib\src/stm32f10x_i2c.c ****   * @brief  Clears the I2Cx's pending flags.
1183:.\StdPeriphLib\src/stm32f10x_i2c.c ****   * @param  I2Cx: where x can be 1 or 2 to select the I2C peripheral.
1184:.\StdPeriphLib\src/stm32f10x_i2c.c ****   * @param  I2C_FLAG: specifies the flag to clear. 
1185:.\StdPeriphLib\src/stm32f10x_i2c.c ****   *   This parameter can be any combination of the following values:
1186:.\StdPeriphLib\src/stm32f10x_i2c.c ****   *     @arg I2C_FLAG_SMBALERT: SMBus Alert flag
1187:.\StdPeriphLib\src/stm32f10x_i2c.c ****   *     @arg I2C_FLAG_TIMEOUT: Timeout or Tlow error flag
1188:.\StdPeriphLib\src/stm32f10x_i2c.c ****   *     @arg I2C_FLAG_PECERR: PEC error in reception flag
1189:.\StdPeriphLib\src/stm32f10x_i2c.c ****   *     @arg I2C_FLAG_OVR: Overrun/Underrun flag (Slave mode)
1190:.\StdPeriphLib\src/stm32f10x_i2c.c ****   *     @arg I2C_FLAG_AF: Acknowledge failure flag
1191:.\StdPeriphLib\src/stm32f10x_i2c.c ****   *     @arg I2C_FLAG_ARLO: Arbitration lost flag (Master mode)
1192:.\StdPeriphLib\src/stm32f10x_i2c.c ****   *     @arg I2C_FLAG_BERR: Bus error flag
1193:.\StdPeriphLib\src/stm32f10x_i2c.c ****   *   
1194:.\StdPeriphLib\src/stm32f10x_i2c.c ****   * @note
1195:.\StdPeriphLib\src/stm32f10x_i2c.c ****   *   - STOPF (STOP detection) is cleared by software sequence: a read operation 
1196:.\StdPeriphLib\src/stm32f10x_i2c.c ****   *     to I2C_SR1 register (I2C_GetFlagStatus()) followed by a write operation 
1197:.\StdPeriphLib\src/stm32f10x_i2c.c ****   *     to I2C_CR1 register (I2C_Cmd() to re-enable the I2C peripheral).
1198:.\StdPeriphLib\src/stm32f10x_i2c.c ****   *   - ADD10 (10-bit header sent) is cleared by software sequence: a read 
1199:.\StdPeriphLib\src/stm32f10x_i2c.c ****   *     operation to I2C_SR1 (I2C_GetFlagStatus()) followed by writing the 
1200:.\StdPeriphLib\src/stm32f10x_i2c.c ****   *     second byte of the address in DR register.
1201:.\StdPeriphLib\src/stm32f10x_i2c.c ****   *   - BTF (Byte Transfer Finished) is cleared by software sequence: a read 
1202:.\StdPeriphLib\src/stm32f10x_i2c.c ****   *     operation to I2C_SR1 register (I2C_GetFlagStatus()) followed by a 
1203:.\StdPeriphLib\src/stm32f10x_i2c.c ****   *     read/write to I2C_DR register (I2C_SendData()).
1204:.\StdPeriphLib\src/stm32f10x_i2c.c ****   *   - ADDR (Address sent) is cleared by software sequence: a read operation to 
1205:.\StdPeriphLib\src/stm32f10x_i2c.c ****   *     I2C_SR1 register (I2C_GetFlagStatus()) followed by a read operation to 
1206:.\StdPeriphLib\src/stm32f10x_i2c.c ****   *     I2C_SR2 register ((void)(I2Cx->SR2)).
1207:.\StdPeriphLib\src/stm32f10x_i2c.c ****   *   - SB (Start Bit) is cleared software sequence: a read operation to I2C_SR1
1208:.\StdPeriphLib\src/stm32f10x_i2c.c ****   *     register (I2C_GetFlagStatus()) followed by a write operation to I2C_DR
1209:.\StdPeriphLib\src/stm32f10x_i2c.c ****   *     register  (I2C_SendData()).
1210:.\StdPeriphLib\src/stm32f10x_i2c.c ****   * @retval None
1211:.\StdPeriphLib\src/stm32f10x_i2c.c ****   */
1212:.\StdPeriphLib\src/stm32f10x_i2c.c **** void I2C_ClearFlag(I2C_TypeDef* I2Cx, uint32_t I2C_FLAG)
1213:.\StdPeriphLib\src/stm32f10x_i2c.c **** {
 1209              		.loc 1 1213 0
 1210              		.cfi_startproc
 1211              		@ args = 0, pretend = 0, frame = 0
 1212              		@ frame_needed = 0, uses_anonymous_args = 0
 1213              		@ link register save eliminated.
 1214              	.LVL94:
1214:.\StdPeriphLib\src/stm32f10x_i2c.c ****   uint32_t flagpos = 0;
1215:.\StdPeriphLib\src/stm32f10x_i2c.c ****   /* Check the parameters */
1216:.\StdPeriphLib\src/stm32f10x_i2c.c ****   assert_param(IS_I2C_ALL_PERIPH(I2Cx));
1217:.\StdPeriphLib\src/stm32f10x_i2c.c ****   assert_param(IS_I2C_CLEAR_FLAG(I2C_FLAG));
1218:.\StdPeriphLib\src/stm32f10x_i2c.c ****   /* Get the I2C flag position */
1219:.\StdPeriphLib\src/stm32f10x_i2c.c ****   flagpos = I2C_FLAG & FLAG_Mask;
1220:.\StdPeriphLib\src/stm32f10x_i2c.c ****   /* Clear the selected I2C flag */
1221:.\StdPeriphLib\src/stm32f10x_i2c.c ****   I2Cx->SR1 = (uint16_t)~flagpos;
 1215              		.loc 1 1221 0
 1216 0000 C943     		mvns	r1, r1
 1217              	.LVL95:
 1218 0002 89B2     		uxth	r1, r1
 1219              	.LVL96:
 1220 0004 8182     		strh	r1, [r0, #20]	@ movhi
 1221 0006 7047     		bx	lr
 1222              		.cfi_endproc
 1223              	.LFE59:
 1225              		.section	.text.I2C_GetITStatus,"ax",%progbits
 1226              		.align	2
 1227              		.global	I2C_GetITStatus
 1228              		.thumb
 1229              		.thumb_func
 1231              	I2C_GetITStatus:
 1232              	.LFB60:
1222:.\StdPeriphLib\src/stm32f10x_i2c.c **** }
1223:.\StdPeriphLib\src/stm32f10x_i2c.c **** 
1224:.\StdPeriphLib\src/stm32f10x_i2c.c **** /**
1225:.\StdPeriphLib\src/stm32f10x_i2c.c ****   * @brief  Checks whether the specified I2C interrupt has occurred or not.
1226:.\StdPeriphLib\src/stm32f10x_i2c.c ****   * @param  I2Cx: where x can be 1 or 2 to select the I2C peripheral.
1227:.\StdPeriphLib\src/stm32f10x_i2c.c ****   * @param  I2C_IT: specifies the interrupt source to check. 
1228:.\StdPeriphLib\src/stm32f10x_i2c.c ****   *   This parameter can be one of the following values:
1229:.\StdPeriphLib\src/stm32f10x_i2c.c ****   *     @arg I2C_IT_SMBALERT: SMBus Alert flag
1230:.\StdPeriphLib\src/stm32f10x_i2c.c ****   *     @arg I2C_IT_TIMEOUT: Timeout or Tlow error flag
1231:.\StdPeriphLib\src/stm32f10x_i2c.c ****   *     @arg I2C_IT_PECERR: PEC error in reception flag
1232:.\StdPeriphLib\src/stm32f10x_i2c.c ****   *     @arg I2C_IT_OVR: Overrun/Underrun flag (Slave mode)
1233:.\StdPeriphLib\src/stm32f10x_i2c.c ****   *     @arg I2C_IT_AF: Acknowledge failure flag
1234:.\StdPeriphLib\src/stm32f10x_i2c.c ****   *     @arg I2C_IT_ARLO: Arbitration lost flag (Master mode)
1235:.\StdPeriphLib\src/stm32f10x_i2c.c ****   *     @arg I2C_IT_BERR: Bus error flag
1236:.\StdPeriphLib\src/stm32f10x_i2c.c ****   *     @arg I2C_IT_TXE: Data register empty flag (Transmitter)
1237:.\StdPeriphLib\src/stm32f10x_i2c.c ****   *     @arg I2C_IT_RXNE: Data register not empty (Receiver) flag
1238:.\StdPeriphLib\src/stm32f10x_i2c.c ****   *     @arg I2C_IT_STOPF: Stop detection flag (Slave mode)
1239:.\StdPeriphLib\src/stm32f10x_i2c.c ****   *     @arg I2C_IT_ADD10: 10-bit header sent flag (Master mode)
1240:.\StdPeriphLib\src/stm32f10x_i2c.c ****   *     @arg I2C_IT_BTF: Byte transfer finished flag
1241:.\StdPeriphLib\src/stm32f10x_i2c.c ****   *     @arg I2C_IT_ADDR: Address sent flag (Master mode) "ADSL"
1242:.\StdPeriphLib\src/stm32f10x_i2c.c ****   *                       Address matched flag (Slave mode)"ENDAD"
1243:.\StdPeriphLib\src/stm32f10x_i2c.c ****   *     @arg I2C_IT_SB: Start bit flag (Master mode)
1244:.\StdPeriphLib\src/stm32f10x_i2c.c ****   * @retval The new state of I2C_IT (SET or RESET).
1245:.\StdPeriphLib\src/stm32f10x_i2c.c ****   */
1246:.\StdPeriphLib\src/stm32f10x_i2c.c **** ITStatus I2C_GetITStatus(I2C_TypeDef* I2Cx, uint32_t I2C_IT)
1247:.\StdPeriphLib\src/stm32f10x_i2c.c **** {
 1233              		.loc 1 1247 0
 1234              		.cfi_startproc
 1235              		@ args = 0, pretend = 0, frame = 0
 1236              		@ frame_needed = 0, uses_anonymous_args = 0
 1237              		@ link register save eliminated.
 1238              	.LVL97:
1248:.\StdPeriphLib\src/stm32f10x_i2c.c ****   ITStatus bitstatus = RESET;
1249:.\StdPeriphLib\src/stm32f10x_i2c.c ****   uint32_t enablestatus = 0;
1250:.\StdPeriphLib\src/stm32f10x_i2c.c **** 
1251:.\StdPeriphLib\src/stm32f10x_i2c.c ****   /* Check the parameters */
1252:.\StdPeriphLib\src/stm32f10x_i2c.c ****   assert_param(IS_I2C_ALL_PERIPH(I2Cx));
1253:.\StdPeriphLib\src/stm32f10x_i2c.c ****   assert_param(IS_I2C_GET_IT(I2C_IT));
1254:.\StdPeriphLib\src/stm32f10x_i2c.c **** 
1255:.\StdPeriphLib\src/stm32f10x_i2c.c ****   /* Check if the interrupt source is enabled or not */
1256:.\StdPeriphLib\src/stm32f10x_i2c.c ****   enablestatus = (uint32_t)(((I2C_IT & ITEN_Mask) >> 16) & (I2Cx->CR2)) ;
 1239              		.loc 1 1256 0
 1240 0000 8388     		ldrh	r3, [r0, #4]
 1241 0002 9AB2     		uxth	r2, r3
 1242              	.LVL98:
1257:.\StdPeriphLib\src/stm32f10x_i2c.c ****   
1258:.\StdPeriphLib\src/stm32f10x_i2c.c ****   /* Get bit[23:0] of the flag */
1259:.\StdPeriphLib\src/stm32f10x_i2c.c ****   I2C_IT &= FLAG_Mask;
1260:.\StdPeriphLib\src/stm32f10x_i2c.c **** 
1261:.\StdPeriphLib\src/stm32f10x_i2c.c ****   /* Check the status of the specified I2C flag */
1262:.\StdPeriphLib\src/stm32f10x_i2c.c ****   if (((I2Cx->SR1 & I2C_IT) != (uint32_t)RESET) && enablestatus)
 1243              		.loc 1 1262 0
 1244 0004 838A     		ldrh	r3, [r0, #20]
 1245 0006 9BB2     		uxth	r3, r3
 1246 0008 0B42     		tst	r3, r1
 1247 000a 07D0     		beq	.L91
1256:.\StdPeriphLib\src/stm32f10x_i2c.c ****   
 1248              		.loc 1 1256 0 discriminator 1
 1249 000c 01F0E061 		and	r1, r1, #117440512
 1250              	.LVL99:
 1251              		.loc 1 1262 0 discriminator 1
 1252 0010 12EA1143 		ands	r3, r2, r1, lsr #16
1263:.\StdPeriphLib\src/stm32f10x_i2c.c ****   {
1264:.\StdPeriphLib\src/stm32f10x_i2c.c ****     /* I2C_IT is set */
1265:.\StdPeriphLib\src/stm32f10x_i2c.c ****     bitstatus = SET;
 1253              		.loc 1 1265 0 discriminator 1
 1254 0014 14BF     		ite	ne
 1255 0016 0120     		movne	r0, #1
 1256              	.LVL100:
 1257 0018 0020     		moveq	r0, #0
 1258 001a 7047     		bx	lr
 1259              	.LVL101:
 1260              	.L91:
1266:.\StdPeriphLib\src/stm32f10x_i2c.c ****   }
1267:.\StdPeriphLib\src/stm32f10x_i2c.c ****   else
1268:.\StdPeriphLib\src/stm32f10x_i2c.c ****   {
1269:.\StdPeriphLib\src/stm32f10x_i2c.c ****     /* I2C_IT is reset */
1270:.\StdPeriphLib\src/stm32f10x_i2c.c ****     bitstatus = RESET;
 1261              		.loc 1 1270 0
 1262 001c 0020     		movs	r0, #0
 1263              	.LVL102:
1271:.\StdPeriphLib\src/stm32f10x_i2c.c ****   }
1272:.\StdPeriphLib\src/stm32f10x_i2c.c ****   /* Return the I2C_IT status */
1273:.\StdPeriphLib\src/stm32f10x_i2c.c ****   return  bitstatus;
1274:.\StdPeriphLib\src/stm32f10x_i2c.c **** }
 1264              		.loc 1 1274 0
 1265 001e 7047     		bx	lr
 1266              		.cfi_endproc
 1267              	.LFE60:
 1269              		.section	.text.I2C_ClearITPendingBit,"ax",%progbits
 1270              		.align	2
 1271              		.global	I2C_ClearITPendingBit
 1272              		.thumb
 1273              		.thumb_func
 1275              	I2C_ClearITPendingBit:
 1276              	.LFB61:
1275:.\StdPeriphLib\src/stm32f10x_i2c.c **** 
1276:.\StdPeriphLib\src/stm32f10x_i2c.c **** /**
1277:.\StdPeriphLib\src/stm32f10x_i2c.c ****   * @brief  Clears the I2Cxs interrupt pending bits.
1278:.\StdPeriphLib\src/stm32f10x_i2c.c ****   * @param  I2Cx: where x can be 1 or 2 to select the I2C peripheral.
1279:.\StdPeriphLib\src/stm32f10x_i2c.c ****   * @param  I2C_IT: specifies the interrupt pending bit to clear. 
1280:.\StdPeriphLib\src/stm32f10x_i2c.c ****   *   This parameter can be any combination of the following values:
1281:.\StdPeriphLib\src/stm32f10x_i2c.c ****   *     @arg I2C_IT_SMBALERT: SMBus Alert interrupt
1282:.\StdPeriphLib\src/stm32f10x_i2c.c ****   *     @arg I2C_IT_TIMEOUT: Timeout or Tlow error interrupt
1283:.\StdPeriphLib\src/stm32f10x_i2c.c ****   *     @arg I2C_IT_PECERR: PEC error in reception  interrupt
1284:.\StdPeriphLib\src/stm32f10x_i2c.c ****   *     @arg I2C_IT_OVR: Overrun/Underrun interrupt (Slave mode)
1285:.\StdPeriphLib\src/stm32f10x_i2c.c ****   *     @arg I2C_IT_AF: Acknowledge failure interrupt
1286:.\StdPeriphLib\src/stm32f10x_i2c.c ****   *     @arg I2C_IT_ARLO: Arbitration lost interrupt (Master mode)
1287:.\StdPeriphLib\src/stm32f10x_i2c.c ****   *     @arg I2C_IT_BERR: Bus error interrupt
1288:.\StdPeriphLib\src/stm32f10x_i2c.c ****   *   
1289:.\StdPeriphLib\src/stm32f10x_i2c.c ****   * @note
1290:.\StdPeriphLib\src/stm32f10x_i2c.c ****   *   - STOPF (STOP detection) is cleared by software sequence: a read operation 
1291:.\StdPeriphLib\src/stm32f10x_i2c.c ****   *     to I2C_SR1 register (I2C_GetITStatus()) followed by a write operation to 
1292:.\StdPeriphLib\src/stm32f10x_i2c.c ****   *     I2C_CR1 register (I2C_Cmd() to re-enable the I2C peripheral).
1293:.\StdPeriphLib\src/stm32f10x_i2c.c ****   *   - ADD10 (10-bit header sent) is cleared by software sequence: a read 
1294:.\StdPeriphLib\src/stm32f10x_i2c.c ****   *     operation to I2C_SR1 (I2C_GetITStatus()) followed by writing the second 
1295:.\StdPeriphLib\src/stm32f10x_i2c.c ****   *     byte of the address in I2C_DR register.
1296:.\StdPeriphLib\src/stm32f10x_i2c.c ****   *   - BTF (Byte Transfer Finished) is cleared by software sequence: a read 
1297:.\StdPeriphLib\src/stm32f10x_i2c.c ****   *     operation to I2C_SR1 register (I2C_GetITStatus()) followed by a 
1298:.\StdPeriphLib\src/stm32f10x_i2c.c ****   *     read/write to I2C_DR register (I2C_SendData()).
1299:.\StdPeriphLib\src/stm32f10x_i2c.c ****   *   - ADDR (Address sent) is cleared by software sequence: a read operation to 
1300:.\StdPeriphLib\src/stm32f10x_i2c.c ****   *     I2C_SR1 register (I2C_GetITStatus()) followed by a read operation to 
1301:.\StdPeriphLib\src/stm32f10x_i2c.c ****   *     I2C_SR2 register ((void)(I2Cx->SR2)).
1302:.\StdPeriphLib\src/stm32f10x_i2c.c ****   *   - SB (Start Bit) is cleared by software sequence: a read operation to 
1303:.\StdPeriphLib\src/stm32f10x_i2c.c ****   *     I2C_SR1 register (I2C_GetITStatus()) followed by a write operation to 
1304:.\StdPeriphLib\src/stm32f10x_i2c.c ****   *     I2C_DR register (I2C_SendData()).
1305:.\StdPeriphLib\src/stm32f10x_i2c.c ****   * @retval None
1306:.\StdPeriphLib\src/stm32f10x_i2c.c ****   */
1307:.\StdPeriphLib\src/stm32f10x_i2c.c **** void I2C_ClearITPendingBit(I2C_TypeDef* I2Cx, uint32_t I2C_IT)
1308:.\StdPeriphLib\src/stm32f10x_i2c.c **** {
 1277              		.loc 1 1308 0
 1278              		.cfi_startproc
 1279              		@ args = 0, pretend = 0, frame = 0
 1280              		@ frame_needed = 0, uses_anonymous_args = 0
 1281              		@ link register save eliminated.
 1282              	.LVL103:
1309:.\StdPeriphLib\src/stm32f10x_i2c.c ****   uint32_t flagpos = 0;
1310:.\StdPeriphLib\src/stm32f10x_i2c.c ****   /* Check the parameters */
1311:.\StdPeriphLib\src/stm32f10x_i2c.c ****   assert_param(IS_I2C_ALL_PERIPH(I2Cx));
1312:.\StdPeriphLib\src/stm32f10x_i2c.c ****   assert_param(IS_I2C_CLEAR_IT(I2C_IT));
1313:.\StdPeriphLib\src/stm32f10x_i2c.c ****   /* Get the I2C flag position */
1314:.\StdPeriphLib\src/stm32f10x_i2c.c ****   flagpos = I2C_IT & FLAG_Mask;
1315:.\StdPeriphLib\src/stm32f10x_i2c.c ****   /* Clear the selected I2C flag */
1316:.\StdPeriphLib\src/stm32f10x_i2c.c ****   I2Cx->SR1 = (uint16_t)~flagpos;
 1283              		.loc 1 1316 0
 1284 0000 C943     		mvns	r1, r1
 1285              	.LVL104:
 1286 0002 89B2     		uxth	r1, r1
 1287              	.LVL105:
 1288 0004 8182     		strh	r1, [r0, #20]	@ movhi
 1289 0006 7047     		bx	lr
 1290              		.cfi_endproc
 1291              	.LFE61:
 1293              		.text
 1294              	.Letext0:
 1295              		.file 2 "c:\\sublime text build 3126\\gnu tools arm embedded\\arm-none-eabi\\include\\machine\\_de
 1296              		.file 3 "c:\\sublime text build 3126\\gnu tools arm embedded\\arm-none-eabi\\include\\sys\\_stdint
 1297              		.file 4 ".\\CMSIS/stm32f10x.h"
 1298              		.file 5 ".\\StdPeriphLib\\inc/stm32f10x_rcc.h"
 1299              		.file 6 ".\\StdPeriphLib\\inc/stm32f10x_i2c.h"
 1300              		.file 7 ".\\CMSIS/core_cm3.h"